 HID

 Timestamp is 5fd335e9 (Fri Dec 11 17:03:37 2020)

 Preferred load address is 10000000

 Start         Length     Name                   Class
 0001:00000000 00000050H .text$di                CODE
 0001:00000050 00024450H .text$mn                CODE
 0001:000244a0 000001bcH .text$x                 CODE
 0001:0002465c 00000032H .text$yd                CODE
 0002:00000000 0000026cH .idata$5                DATA
 0002:0000026c 00000004H .00cfg                  DATA
 0002:00000270 00000004H .CRT$XCA                DATA
 0002:00000274 0000000cH .CRT$XCC                DATA
 0002:00000280 00000008H .CRT$XCL                DATA
 0002:00000288 00000004H .CRT$XCU                DATA
 0002:0000028c 00000004H .CRT$XCZ                DATA
 0002:00000290 00000004H .CRT$XIA                DATA
 0002:00000294 00000014H .CRT$XIC                DATA
 0002:000002a8 00000004H .CRT$XIZ                DATA
 0002:000002ac 00000004H .CRT$XPA                DATA
 0002:000002b0 00000008H .CRT$XPX                DATA
 0002:000002b8 00000004H .CRT$XPXA               DATA
 0002:000002bc 00000004H .CRT$XPZ                DATA
 0002:000002c0 00000004H .CRT$XTA                DATA
 0002:000002c4 0000000cH .CRT$XTZ                DATA
 0002:000002c8 00000000H .gfids$y                DATA
 0002:000002d0 0000e190H .rdata                  DATA
 0002:0000e460 00000570H .rdata$r                DATA
 0002:0000e9d0 00000044H .rdata$sxdata           DATA
 0002:0000ea14 00000380H .rdata$zzzdbg           DATA
 0002:0000ed94 00000004H .rtc$IAA                DATA
 0002:0000ed98 00000004H .rtc$IZZ                DATA
 0002:0000ed9c 00000004H .rtc$TAA                DATA
 0002:0000eda0 00000008H .rtc$TZZ                DATA
 0002:0000eda8 00000a08H .xdata$x                DATA
 0002:0000f7b0 0000022cH .edata                  DATA
 0002:0000f9dc 0000003cH .idata$2                DATA
 0002:0000fa18 00000014H .idata$3                DATA
 0002:0000fa2c 0000026cH .idata$4                DATA
 0002:0000fc98 0000162aH .idata$6                DATA
 0003:00000000 000008b8H .data                   DATA
 0003:000008b8 00000290H .data$r                 DATA
 0003:00000b48 00000e00H .bss                    DATA
 0004:00000000 00000060H .rsrc$01                DATA
 0004:00000060 00000180H .rsrc$02                DATA

  Address         Publics by Value              Rva+Base       Lib:Object

 0000:00000000       __except_list              00000000     <absolute>
 0000:00000000       ___guard_fids_count        00000000     <absolute>
 0000:00000000       ___guard_longjmp_table     00000000     <absolute>
 0000:00000000       ___hybrid_code_map_count   00000000     <absolute>
 0000:00000000       ___hybrid_auxiliary_iat    00000000     <absolute>
 0000:00000000       ___guard_iat_count         00000000     <absolute>
 0000:00000000       ___guard_fids_table        00000000     <absolute>
 0000:00000000       ___volatile_metadata       00000000     <absolute>
 0000:00000000       ___guard_iat_table         00000000     <absolute>
 0000:00000000       ___dynamic_value_reloc_table 00000000     <absolute>
 0000:00000000       ___guard_longjmp_count     00000000     <absolute>
 0000:00000000       ___enclave_config          00000000     <absolute>
 0000:00000000       ___hybrid_code_map         00000000     <absolute>
 0000:00000011       ___safe_se_handler_count   00000011     <absolute>
 0000:00000100       ___guard_flags             00000100     <absolute>
 0000:00000000       ___ImageBase               10000000     <linker-defined>
 0001:00000050       ___local_stdio_printf_options 10001050 f i HID.obj
 0001:00000060       _sprintf_s                 10001060 f i HID.obj
 0001:000000a0       ?what@exception@stdext@@UBEPBDXZ 100010a0 f i HID.obj
 0001:000000b0       ?_Raise@exception@stdext@@QBEXXZ 100010b0 f i HID.obj
 0001:000000e0       @_guard_check_icall_nop@4  100010e0 f i LIBCMT:guard_support.obj
 0001:000000e0       ?_Unlock@?$basic_streambuf@DU?$char_traits@D@std@@@std@@UAEXXZ 100010e0 f i HID.obj
 0001:000000e0       ?_Doraise@exception@stdext@@MBEXXZ 100010e0 f i HID.obj
 0001:000000e0       ?_Lock@?$basic_streambuf@DU?$char_traits@D@std@@@std@@UAEXXZ 100010e0 f i HID.obj
 0001:000000f0       ??_Gexception@stdext@@UAEPAXI@Z 100010f0 f i HID.obj
 0001:000000f0       ??_Eruntime_error@std@@UAEPAXI@Z 100010f0 f i * CIL library *:* CIL module *
 0001:000000f0       ??_Eexception@stdext@@UAEPAXI@Z 100010f0 f i * CIL library *:* CIL module *
 0001:000000f0       ??_Gruntime_error@std@@UAEPAXI@Z 100010f0 f i HID.obj
 0001:00000120       ??0runtime_error@std@@QAE@PBD@Z 10001120 f i HID.obj
 0001:00000140       ??0_Locinfo@std@@QAE@PBD@Z 10001140 f i HID.obj
 0001:000001c0       ??1_Locinfo@std@@QAE@XZ    100011c0 f i HID.obj
 0001:00000260       ??_E_Facet_base@std@@UAEPAXI@Z 10001260 f i * CIL library *:* CIL module *
 0001:00000260       ??_G_Facet_base@std@@UAEPAXI@Z 10001260 f i HID.obj
 0001:00000290       ?_Incref@facet@locale@std@@UAEXXZ 10001290 f i HID.obj
 0001:000002a0       ?_Decref@facet@locale@std@@UAEPAV_Facet_base@3@XZ 100012a0 f i HID.obj
 0001:000002c0       ??1locale@std@@QAE@XZ      100012c0 f i HID.obj
 0001:000002e0       ?do_tolower@?$ctype@D@std@@MBEDD@Z 100012e0 f i HID.obj
 0001:00000300       ?do_tolower@?$ctype@D@std@@MBEPBDPADPBD@Z 10001300 f i HID.obj
 0001:00000340       ?do_toupper@?$ctype@D@std@@MBEDD@Z 10001340 f i HID.obj
 0001:00000360       ?do_toupper@?$ctype@D@std@@MBEPBDPADPBD@Z 10001360 f i HID.obj
 0001:000003a0       ?do_widen@?$ctype@D@std@@MBEDD@Z 100013a0 f i HID.obj
 0001:000003b0       ?do_widen@?$ctype@D@std@@MBEPBDPBD0PAD@Z 100013b0 f i HID.obj
 0001:000003d0       ?do_narrow@?$ctype@D@std@@MBEDDD@Z 100013d0 f i HID.obj
 0001:000003e0       ?do_narrow@?$ctype@D@std@@MBEPBDPBD0DPAD@Z 100013e0 f i HID.obj
 0001:00000400       ??_G?$ctype@D@std@@MAEPAXI@Z 10001400 f i HID.obj
 0001:00000400       ??_E?$ctype@D@std@@MAEPAXI@Z 10001400 f i * CIL library *:* CIL module *
 0001:00000450       ?default_error_condition@error_category@std@@UBE?AVerror_condition@2@H@Z 10001450 f i HID.obj
 0001:00000460       ?equivalent@error_category@std@@UBE_NHABVerror_condition@2@@Z 10001460 f i HID.obj
 0001:000004a0       ?equivalent@error_category@std@@UBE_NABVerror_code@2@H@Z 100014a0 f i HID.obj
 0001:000004d0       ?make_error_code@std@@YA?AVerror_code@1@W4io_errc@1@@Z 100014d0 f i HID.obj
 0001:00000500       ??0_System_error@std@@IAE@Verror_code@1@ABV?$basic_string@DU?$char_traits@D@std@@V?$allocator@D@2@@1@@Z 10001500 f i HID.obj
 0001:000006e0       ??_Gfailure@ios_base@std@@UAEPAXI@Z 100016e0 f i HID.obj
 0001:000006e0       ??_E_System_error@std@@UAEPAXI@Z 100016e0 f i * CIL library *:* CIL module *
 0001:000006e0       ??_Efailure@ios_base@std@@UAEPAXI@Z 100016e0 f i * CIL library *:* CIL module *
 0001:000006e0       ??_G_System_error@std@@UAEPAXI@Z 100016e0 f i HID.obj
 0001:00000710       ?name@_Iostream_error_category@std@@UBEPBDXZ 10001710 f i HID.obj
 0001:00000720       ?message@_Iostream_error_category@std@@UBE?AV?$basic_string@DU?$char_traits@D@std@@V?$allocator@D@2@@2@H@Z 10001720 f i HID.obj
 0001:00000790       ??_E_Iostream_error_category@std@@UAEPAXI@Z 10001790 f i * CIL library *:* CIL module *
 0001:00000790       ??_G_Iostream_error_category@std@@UAEPAXI@Z 10001790 f i HID.obj
 0001:000007b0       ??0failure@ios_base@std@@QAE@PBDABVerror_code@2@@Z 100017b0 f i HID.obj
 0001:00000870       ?_Doraise@failure@ios_base@std@@MBEXXZ 10001870 f i HID.obj
 0001:00000880       ??_Gios_base@std@@UAEPAXI@Z 10001880 f i HID.obj
 0001:00000880       ??_Eios_base@std@@UAEPAXI@Z 10001880 f i * CIL library *:* CIL module *
 0001:00000990       ?New@?$Factory@VFunctionTemplate@v8@@@imp@Nan@@SA?AV?$Local@VFunctionTemplate@v8@@@v8@@P6AXABV?$FunctionCallbackInfo@VValue@v8@@@3@@ZV?$Local@VValue@v8@@@5@V?$Local@VSignature@v8@@@5@@Z 10001990 f i HID.obj
 0001:00000af0       ?ThrowError@Nan@@YAXPBD@Z  10001af0 f i HID.obj
 0001:00000b70       ??0Utf8String@Nan@@QAE@V?$Local@VValue@v8@@@v8@@@Z 10001b70 f i HID.obj
 0001:00000c40       ?SetPrototypeMethod@Nan@@YAXV?$Local@VFunctionTemplate@v8@@@v8@@PBDP6AXABV?$FunctionCallbackInfo@VValue@v8@@@1@@Z@Z 10001c40 f i HID.obj
 0001:00000cf0       ?Wrap@ObjectWrap@Nan@@IAEXV?$Local@VObject@v8@@@v8@@@Z 10001cf0 f i HID.obj
 0001:00000d90       ?Ref@ObjectWrap@Nan@@MAEXXZ 10001d90 f i HID.obj
 0001:00000dc0       ?Unref@ObjectWrap@Nan@@MAEXXZ 10001dc0 f i HID.obj
 0001:00000e40       ?WeakCallback@ObjectWrap@Nan@@CAXABV?$WeakCallbackInfo@VObjectWrap@Nan@@@v8@@@Z 10001e40 f i HID.obj
 0001:00000eb0       ??_EObjectWrap@Nan@@UAEPAXI@Z 10001eb0 f i * CIL library *:* CIL module *
 0001:00000eb0       ??_GObjectWrap@Nan@@UAEPAXI@Z 10001eb0 f i HID.obj
 0001:00000f30       ??0JSException@@QAE@ABV?$basic_string@DU?$char_traits@D@std@@V?$allocator@D@2@@std@@@Z 10001f30 f i HID.obj
 0001:00000f50       ??1JSException@@UAE@XZ     10001f50 f i HID.obj
 0001:00000fb0       ?message@JSException@@UBE?BV?$basic_string@DU?$char_traits@D@std@@V?$allocator@D@2@@std@@XZ 10001fb0 f i HID.obj
 0001:00000fd0       ?asV8Exception@JSException@@UBEXXZ 10001fd0 f i HID.obj
 0001:00001040       ??_GJSException@@UAEPAXI@Z 10002040 f i HID.obj
 0001:00001040       ??_EJSException@@UAEPAXI@Z 10002040 f i * CIL library *:* CIL module *
 0001:000010b0       ??_GHID@@EAEPAXI@Z         100020b0 f i HID.obj
 0001:000010b0       ??_EHID@@EAEPAXI@Z         100020b0 f i * CIL library *:* CIL module *
 0001:00001170       ??0HID@@AAE@GGPA_W@Z       10002170 f   HID.obj
 0001:00001250       ??0JSException@@QAE@ABV0@@Z 10002250 f i HID.obj
 0001:00001270       ??0HID@@AAE@PBD@Z          10002270 f   HID.obj
 0001:00001330       ?close@HID@@QAEXXZ         10002330 f   HID.obj
 0001:00001380       ?setNonBlocking@HID@@QAEXH@Z 10002380 f   HID.obj
 0001:000013a0       ?write@HID@@QAEHABV?$vector@EV?$allocator@E@std@@@std@@@Z 100023a0 f   HID.obj
 0001:00001460       ?recvAsync@HID@@CAXPAUuv_work_s@@@Z 10002460 f   HID.obj
 0001:00001620       ?recvAsyncDone@HID@@CAXPAUuv_work_s@@@Z 10002620 f   HID.obj
 0001:000019d0       ?read@HID@@CAXABV?$FunctionCallbackInfo@VValue@v8@@@Nan@@@Z 100029d0 f   HID.obj
 0001:00001b00       ?readSync@HID@@CAXABV?$FunctionCallbackInfo@VValue@v8@@@Nan@@@Z 10002b00 f   HID.obj
 0001:00001c90       ?readTimeout@HID@@CAXABV?$FunctionCallbackInfo@VValue@v8@@@Nan@@@Z 10002c90 f   HID.obj
 0001:00001e70       ?getFeatureReport@HID@@CAXABV?$FunctionCallbackInfo@VValue@v8@@@Nan@@@Z 10002e70 f   HID.obj
 0001:000020e0       ?sendFeatureReport@HID@@CAXABV?$FunctionCallbackInfo@VValue@v8@@@Nan@@@Z 100030e0 f   HID.obj
 0001:00002400       ?New@HID@@CAXABV?$FunctionCallbackInfo@VValue@v8@@@Nan@@@Z 10003400 f   HID.obj
 0001:00002610       ?close@HID@@CAXABV?$FunctionCallbackInfo@VValue@v8@@@Nan@@@Z 10003610 f   HID.obj
 0001:000026a0       ?setNonBlocking@HID@@CAXABV?$FunctionCallbackInfo@VValue@v8@@@Nan@@@Z 100036a0 f   HID.obj
 0001:00002750       ?write@HID@@CAXABV?$FunctionCallbackInfo@VValue@v8@@@Nan@@@Z 10003750 f   HID.obj
 0001:00002be0       ?getDeviceInfo@HID@@CAXABV?$FunctionCallbackInfo@VValue@v8@@@Nan@@@Z 10003be0 f   HID.obj
 0001:00002f30       ?devices@HID@@SAXABV?$FunctionCallbackInfo@VValue@v8@@@Nan@@@Z 10003f30 f   HID.obj
 0001:00003780       ?Initialize@HID@@SAXV?$Local@VObject@v8@@@v8@@@Z 10004780 f   HID.obj
 0001:000039e0       ??A?$FunctionCallbackInfo@VValue@v8@@@Nan@@QBE?AV?$Local@VValue@v8@@@v8@@H@Z 100049e0 f i HID.obj
 0001:00003a20       ??0?$basic_string@DU?$char_traits@D@std@@V?$allocator@D@2@@std@@QAE@ID@Z 10004a20 f i HID.obj
 0001:00003b60       ??0?$basic_string@DU?$char_traits@D@std@@V?$allocator@D@2@@std@@QAE@QBD@Z 10004b60 f i HID.obj
 0001:00003ba0       ??0?$basic_string@DU?$char_traits@D@std@@V?$allocator@D@2@@std@@QAE@ABV01@@Z 10004ba0 f i HID.obj
 0001:00003c60       ?str@?$basic_ostringstream@DU?$char_traits@D@std@@V?$allocator@D@2@@std@@QBE?AV?$basic_string@DU?$char_traits@D@std@@V?$allocator@D@2@@2@XZ 10004c60 f i HID.obj
 0001:00003ce0       ??0?$basic_ostringstream@DU?$char_traits@D@std@@V?$allocator@D@2@@std@@QAE@H@Z 10004ce0 f i HID.obj
 0001:00003ee0       ?seekpos@?$basic_stringbuf@DU?$char_traits@D@std@@V?$allocator@D@2@@std@@MAE?AV?$fpos@U_Mbstatet@@@2@V32@H@Z 10004ee0 f i HID.obj
 0001:00003fe0       ?seekoff@?$basic_stringbuf@DU?$char_traits@D@std@@V?$allocator@D@2@@std@@MAE?AV?$fpos@U_Mbstatet@@@2@_JHH@Z 10004fe0 f i HID.obj
 0001:00004150       ?underflow@?$basic_stringbuf@DU?$char_traits@D@std@@V?$allocator@D@2@@std@@MAEHXZ 10005150 f i HID.obj
 0001:000041b0       ?pbackfail@?$basic_stringbuf@DU?$char_traits@D@std@@V?$allocator@D@2@@std@@MAEHH@Z 100051b0 f i HID.obj
 0001:00004200       ?overflow@?$basic_stringbuf@DU?$char_traits@D@std@@V?$allocator@D@2@@std@@MAEHH@Z 10005200 f i HID.obj
 0001:000043b0       ??1?$basic_stringbuf@DU?$char_traits@D@std@@V?$allocator@D@2@@std@@UAE@XZ 100053b0 f i HID.obj
 0001:00004480       ??6?$basic_ostream@DU?$char_traits@D@std@@@std@@QAEAAV01@G@Z 10005480 f i HID.obj
 0001:00004690       ??6?$basic_ostream@DU?$char_traits@D@std@@@std@@QAEAAV01@P6AAAVios_base@1@AAV21@@Z@Z 10005690 f i HID.obj
 0001:000046c0       ?imbue@?$basic_streambuf@DU?$char_traits@D@std@@@std@@MAEXABVlocale@2@@Z 100056c0 f i HID.obj
 0001:000046d0       ?sync@?$basic_streambuf@DU?$char_traits@D@std@@@std@@MAEHXZ 100056d0 f i HID.obj
 0001:000046e0       ?setbuf@?$basic_streambuf@DU?$char_traits@D@std@@@std@@MAEPAV12@PAD_J@Z 100056e0 f i HID.obj
 0001:000046f0       ?seekpos@?$basic_streambuf@DU?$char_traits@D@std@@@std@@MAE?AV?$fpos@U_Mbstatet@@@2@V32@H@Z 100056f0 f i HID.obj
 0001:00004720       ?seekoff@?$basic_streambuf@DU?$char_traits@D@std@@@std@@MAE?AV?$fpos@U_Mbstatet@@@2@_JHH@Z 10005720 f i HID.obj
 0001:00004750       ?xsputn@?$basic_streambuf@DU?$char_traits@D@std@@@std@@MAE_JPBD_J@Z 10005750 f i HID.obj
 0001:00004830       ?xsgetn@?$basic_streambuf@DU?$char_traits@D@std@@@std@@MAE_JPAD_J@Z 10005830 f i HID.obj
 0001:00004910       ?uflow@?$basic_streambuf@DU?$char_traits@D@std@@@std@@MAEHXZ 10005910 f i HID.obj
 0001:00004940       ?underflow@?$basic_streambuf@DU?$char_traits@D@std@@@std@@MAEHXZ 10005940 f i HID.obj
 0001:00004950       ?showmanyc@?$basic_streambuf@DU?$char_traits@D@std@@@std@@MAE_JXZ 10005950 f i HID.obj
 0001:00004960       ?overflow@?$basic_streambuf@DU?$char_traits@D@std@@@std@@MAEHH@Z 10005960 f i HID.obj
 0001:00004960       ?pbackfail@?$basic_streambuf@DU?$char_traits@D@std@@@std@@MAEHH@Z 10005960 f i HID.obj
 0001:00004970       ??_G?$basic_ostringstream@DU?$char_traits@D@std@@V?$allocator@D@2@@std@@UAEPAXI@Z 10005970 f i HID.obj
 0001:00004970       ??_E?$basic_ostringstream@DU?$char_traits@D@std@@V?$allocator@D@2@@std@@UAEPAXI@Z 10005970 f i * CIL library *:* CIL module *
 0001:000049e0       ??_E?$basic_stringbuf@DU?$char_traits@D@std@@V?$allocator@D@2@@std@@UAEPAXI@Z 100059e0 f i * CIL library *:* CIL module *
 0001:000049e0       ??_G?$basic_stringbuf@DU?$char_traits@D@std@@V?$allocator@D@2@@std@@UAEPAXI@Z 100059e0 f i HID.obj
 0001:00004a00       ??_E?$basic_ostream@DU?$char_traits@D@std@@@std@@UAEPAXI@Z 10005a00 f i * CIL library *:* CIL module *
 0001:00004a00       ??_G?$basic_ostream@DU?$char_traits@D@std@@@std@@UAEPAXI@Z 10005a00 f i HID.obj
 0001:00004a50       ??_G?$basic_streambuf@DU?$char_traits@D@std@@@std@@UAEPAXI@Z 10005a50 f i HID.obj
 0001:00004a50       ??_E?$basic_streambuf@DU?$char_traits@D@std@@@std@@UAEPAXI@Z 10005a50 f i * CIL library *:* CIL module *
 0001:00004aa0       ??_G?$basic_ios@DU?$char_traits@D@std@@@std@@UAEPAXI@Z 10005aa0 f i HID.obj
 0001:00004aa0       ??_E?$basic_ios@DU?$char_traits@D@std@@@std@@UAEPAXI@Z 10005aa0 f i * CIL library *:* CIL module *
 0001:00004ad0       ??0sentry@?$basic_ostream@DU?$char_traits@D@std@@@std@@QAE@AAV12@@Z 10005ad0 f i HID.obj
 0001:00004bc0       ?do_put@?$num_put@DV?$ostreambuf_iterator@DU?$char_traits@D@std@@@std@@@std@@MBE?AV?$ostreambuf_iterator@DU?$char_traits@D@std@@@2@V32@AAVios_base@2@DPBX@Z 10005bc0 f i HID.obj
 0001:00004c30       ?do_put@?$num_put@DV?$ostreambuf_iterator@DU?$char_traits@D@std@@@std@@@std@@MBE?AV?$ostreambuf_iterator@DU?$char_traits@D@std@@@2@V32@AAVios_base@2@DO@Z 10005c30 f i HID.obj
 0001:00004e30       ?do_put@?$num_put@DV?$ostreambuf_iterator@DU?$char_traits@D@std@@@std@@@std@@MBE?AV?$ostreambuf_iterator@DU?$char_traits@D@std@@@2@V32@AAVios_base@2@DN@Z 10005e30 f i HID.obj
 0001:00005030       ?do_put@?$num_put@DV?$ostreambuf_iterator@DU?$char_traits@D@std@@@std@@@std@@MBE?AV?$ostreambuf_iterator@DU?$char_traits@D@std@@@2@V32@AAVios_base@2@D_K@Z 10006030 f i HID.obj
 0001:000050b0       ?do_put@?$num_put@DV?$ostreambuf_iterator@DU?$char_traits@D@std@@@std@@@std@@MBE?AV?$ostreambuf_iterator@DU?$char_traits@D@std@@@2@V32@AAVios_base@2@D_J@Z 100060b0 f i HID.obj
 0001:00005130       ?do_put@?$num_put@DV?$ostreambuf_iterator@DU?$char_traits@D@std@@@std@@@std@@MBE?AV?$ostreambuf_iterator@DU?$char_traits@D@std@@@2@V32@AAVios_base@2@DK@Z 10006130 f i HID.obj
 0001:000051b0       ?do_put@?$num_put@DV?$ostreambuf_iterator@DU?$char_traits@D@std@@@std@@@std@@MBE?AV?$ostreambuf_iterator@DU?$char_traits@D@std@@@2@V32@AAVios_base@2@DJ@Z 100061b0 f i HID.obj
 0001:00005230       ?do_put@?$num_put@DV?$ostreambuf_iterator@DU?$char_traits@D@std@@@std@@@std@@MBE?AV?$ostreambuf_iterator@DU?$char_traits@D@std@@@2@V32@AAVios_base@2@D_N@Z 10006230 f i HID.obj
 0001:00005480       ?_Tidy@?$vector@EV?$allocator@E@std@@@std@@AAEXXZ 10006480 f i HID.obj
 0001:000054d0       ?assign@?$basic_string@_WU?$char_traits@_W@std@@V?$allocator@_W@2@@std@@QAEAAV12@QB_WI@Z 100064d0 f i HID.obj
 0001:00005620       ?assign@?$basic_string@DU?$char_traits@D@std@@V?$allocator@D@2@@std@@QAEAAV12@QBDI@Z 10006620 f i HID.obj
 0001:00005740       ?_Pnavail@?$basic_streambuf@DU?$char_traits@D@std@@@std@@IBE_JXZ 10006740 f i HID.obj
 0001:00005760       ?_Gnavail@?$basic_streambuf@DU?$char_traits@D@std@@@std@@IBE_JXZ 10006760 f i HID.obj
 0001:00005780       ?setstate@?$basic_ios@DU?$char_traits@D@std@@@std@@QAEXH_N@Z 10006780 f i HID.obj
 0001:000057f0       ??_E?$num_put@DV?$ostreambuf_iterator@DU?$char_traits@D@std@@@std@@@std@@MAEPAXI@Z 100067f0 f i * CIL library *:* CIL module *
 0001:000057f0       ??_G?$num_put@DV?$ostreambuf_iterator@DU?$char_traits@D@std@@@std@@@std@@MAEPAXI@Z 100067f0 f i HID.obj
 0001:00005820       ?do_truename@?$numpunct@D@std@@MBE?AV?$basic_string@DU?$char_traits@D@std@@V?$allocator@D@2@@2@XZ 10006820 f i HID.obj
 0001:00005860       ?do_falsename@?$numpunct@D@std@@MBE?AV?$basic_string@DU?$char_traits@D@std@@V?$allocator@D@2@@2@XZ 10006860 f i HID.obj
 0001:000058a0       ?do_grouping@?$numpunct@D@std@@MBE?AV?$basic_string@DU?$char_traits@D@std@@V?$allocator@D@2@@2@XZ 100068a0 f i HID.obj
 0001:000058e0       ?do_thousands_sep@?$numpunct@D@std@@MBEDXZ 100068e0 f i HID.obj
 0001:000058f0       ?do_decimal_point@?$numpunct@D@std@@MBEDXZ 100068f0 f i HID.obj
 0001:00005900       ?_Rep@?$num_put@DV?$ostreambuf_iterator@DU?$char_traits@D@std@@@std@@@std@@ABA?AV?$ostreambuf_iterator@DU?$char_traits@D@std@@@2@V32@DI@Z 10006900 f i HID.obj
 0001:00005970       ?_Put@?$num_put@DV?$ostreambuf_iterator@DU?$char_traits@D@std@@@std@@@std@@ABA?AV?$ostreambuf_iterator@DU?$char_traits@D@std@@@2@V32@PBDI@Z 10006970 f i HID.obj
 0001:000059f0       ?_Iput@?$num_put@DV?$ostreambuf_iterator@DU?$char_traits@D@std@@@std@@@std@@ABA?AV?$ostreambuf_iterator@DU?$char_traits@D@std@@@2@V32@AAVios_base@2@DPADI@Z 100069f0 f i HID.obj
 0001:00005df0       ?_Ifmt@?$num_put@DV?$ostreambuf_iterator@DU?$char_traits@D@std@@@std@@@std@@ABAPADPADPBDH@Z 10006df0 f i HID.obj
 0001:00005e80       ?_Fput@?$num_put@DV?$ostreambuf_iterator@DU?$char_traits@D@std@@@std@@@std@@ABA?AV?$ostreambuf_iterator@DU?$char_traits@D@std@@@2@V32@AAVios_base@2@DPBDI@Z 10006e80 f i HID.obj
 0001:000062f0       ?_Ffmt@?$num_put@DV?$ostreambuf_iterator@DU?$char_traits@D@std@@@std@@@std@@ABAPADPADDH@Z 100072f0 f i HID.obj
 0001:000063b0       ?assign@?$basic_string@DU?$char_traits@D@std@@V?$allocator@D@2@@std@@QAEAAV12@$$QAV12@@Z 100073b0 f i HID.obj
 0001:00006430       ??_E?$numpunct@D@std@@MAEPAXI@Z 10007430 f i * CIL library *:* CIL module *
 0001:00006430       ??_G?$numpunct@D@std@@MAEPAXI@Z 10007430 f i HID.obj
 0001:00006480       ?_Xran@?$_String_val@U?$_Simple_types@D@std@@@std@@SAXXZ 10007480 f i HID.obj
 0001:00006490       ??$use_facet@V?$ctype@D@std@@@std@@YAABV?$ctype@D@0@ABVlocale@0@@Z 10007490 f i HID.obj
 0001:000065c0       ??$?6U?$char_traits@D@std@@@std@@YAAAV?$basic_ostream@DU?$char_traits@D@std@@@0@AAV10@D@Z 100075c0 f i HID.obj
 0001:00006810       ??$?6U?$char_traits@D@std@@@std@@YAAAV?$basic_ostream@DU?$char_traits@D@std@@@0@AAV10@PBD@Z 10007810 f i HID.obj
 0001:00006a50       ??$Unwrap@VHID@@@ObjectWrap@Nan@@SAPAVHID@@V?$Local@VObject@v8@@@v8@@@Z 10007a50 f i HID.obj
 0001:00006ad0       ??$_Emplace_reallocate@E@?$vector@EV?$allocator@E@std@@@std@@QAEPAEQAE$$QAE@Z 10007ad0 f i HID.obj
 0001:00006c10       ??$use_facet@V?$numpunct@D@std@@@std@@YAABV?$numpunct@D@0@ABVlocale@0@@Z 10007c10 f i HID.obj
 0001:00006de0       ??$_Reallocate_grow_by@V<lambda_c1b8c41cb4019640539cfd828748c4d4>@@ID@?$basic_string@DU?$char_traits@D@std@@V?$allocator@D@2@@std@@QAEAAV01@IV<lambda_c1b8c41cb4019640539cfd828748c4d4>@@ID@Z 10007de0 f i HID.obj
 0001:00006f30       ??$_Reallocate_grow_by@V<lambda_ab246b20b9526e2ef7792587e4298a77>@@PBDI@?$basic_string@DU?$char_traits@D@std@@V?$allocator@D@2@@std@@QAEAAV01@IV<lambda_ab246b20b9526e2ef7792587e4298a77>@@PBDI@Z 10007f30 f i HID.obj
 0001:00007080       ??$_Reallocate_grow_by@V<lambda_6607a66f2a10a1261ff9db96cba1015b>@@IID@?$basic_string@DU?$char_traits@D@std@@V?$allocator@D@2@@std@@QAEAAV01@IV<lambda_6607a66f2a10a1261ff9db96cba1015b>@@IID@Z 10008080 f i HID.obj
 0001:00007200       ?_Xlength@?$vector@EV?$allocator@E@std@@@std@@CAXXZ 10008200 f i HID.obj
 0001:00007210       ?_Xlen@?$basic_string@DU?$char_traits@D@std@@V?$allocator@D@2@@std@@SAXXZ 10008210 f i HID.obj
 0001:00007210       ?_Xlen@?$basic_string@_WU?$char_traits@_W@std@@V?$allocator@_W@2@@std@@SAXXZ 10008210 f i HID.obj
 0001:00007220       ??$_Immortalize_impl@V_Iostream_error_category@std@@@std@@YGHPAX0PAPAX@Z 10008220 f i HID.obj
 0001:00007239       ??_E?$basic_ostream@DU?$char_traits@D@std@@@std@@$4PPPPPPPM@A@AEPAXI@Z 10008239 f i HID.obj
 0001:00007241       ??_E?$basic_ostringstream@DU?$char_traits@D@std@@V?$allocator@D@2@@std@@$4PPPPPPPM@A@AEPAXI@Z 10008241 f i HID.obj
 0001:000072d0       _hid_init                  100082d0 f   hidapi:hid.obj
 0001:00007430       _hid_exit                  10008430 f   hidapi:hid.obj
 0001:00007460       _hid_enumerate             10008460 f   hidapi:hid.obj
 0001:000078c0       _hid_free_enumeration      100088c0 f   hidapi:hid.obj
 0001:00007910       _hid_open                  10008910 f   hidapi:hid.obj
 0001:000079d0       _hid_open_path             100089d0 f   hidapi:hid.obj
 0001:00007b30       _hid_write                 10008b30 f   hidapi:hid.obj
 0001:00007c10       _hid_read_timeout          10008c10 f   hidapi:hid.obj
 0001:00007d10       _hid_read                  10008d10 f   hidapi:hid.obj
 0001:00007d30       _hid_set_nonblocking       10008d30 f   hidapi:hid.obj
 0001:00007d50       _hid_send_feature_report   10008d50 f   hidapi:hid.obj
 0001:00007d80       _hid_get_feature_report    10008d80 f   hidapi:hid.obj
 0001:00007e00       _hid_close                 10008e00 f   hidapi:hid.obj
 0001:00007e40       _hid_get_manufacturer_string 10008e40 f   hidapi:hid.obj
 0001:00007e80       _hid_get_product_string    10008e80 f   hidapi:hid.obj
 0001:00007ec0       _hid_get_serial_number_string 10008ec0 f   hidapi:hid.obj
 0001:00007f00       _hid_get_indexed_string    10008f00 f   hidapi:hid.obj
 0001:00007f40       _hid_error                 10008f40 f   hidapi:hid.obj
 0001:00007f48       ??0_Init_locks@std@@QAE@XZ 10008f48 f   libcpmt:xlock.obj
 0001:00007f75       ??0_Lockit@std@@QAE@H@Z    10008f75 f   libcpmt:xlock.obj
 0001:00007fa6       ??1_Init_locks@std@@QAE@XZ 10008fa6 f   libcpmt:xlock.obj
 0001:00007fcd       ??1_Lockit@std@@QAE@XZ     10008fcd f   libcpmt:xlock.obj
 0001:00007fec       ??0exception@std@@QAE@ABV01@@Z 10008fec f i libcpmt:xonce.obj
 0001:00008018       ??0exception@std@@QAE@QBD@Z 10009018 f i libcpmt:xonce.obj
 0001:0000804d       ??_Ebad_alloc@std@@UAEPAXI@Z 1000904d f i libcpmt:xthrow.obj
 0001:0000804d       ??_Elogic_error@std@@UAEPAXI@Z 1000904d f i libcpmt:xthrow.obj
 0001:0000804d       ??_Eout_of_range@std@@UAEPAXI@Z 1000904d f i libcpmt:xthrow.obj
 0001:0000804d       ??_Gbad_exception@std@@UAEPAXI@Z 1000904d f i libvcruntime:frame.obj
 0001:0000804d       ??_Ebad_exception@std@@UAEPAXI@Z 1000904d f i libvcruntime:frame.obj
 0001:0000804d       ??_Gbad_array_new_length@std@@UAEPAXI@Z 1000904d f i LIBCMT:throw_bad_alloc.obj
 0001:0000804d       ??_Elength_error@std@@UAEPAXI@Z 1000904d f i libcpmt:xthrow.obj
 0001:0000804d       ??_Gout_of_range@std@@UAEPAXI@Z 1000904d f i libcpmt:xthrow.obj
 0001:0000804d       ??_Ebad_array_new_length@std@@UAEPAXI@Z 1000904d f i LIBCMT:throw_bad_alloc.obj
 0001:0000804d       ??_Glogic_error@std@@UAEPAXI@Z 1000904d f i libcpmt:xthrow.obj
 0001:0000804d       ??_Glength_error@std@@UAEPAXI@Z 1000904d f i libcpmt:xthrow.obj
 0001:0000804d       ??_Gbad_alloc@std@@UAEPAXI@Z 1000904d f i libcpmt:xthrow.obj
 0001:0000804d       ??_Eexception@std@@UAEPAXI@Z 1000904d f i libcpmt:xonce.obj
 0001:0000804d       ??_Gexception@std@@UAEPAXI@Z 1000904d f i libcpmt:xonce.obj
 0001:0000807a       ?_Execute_once@std@@YAHAAUonce_flag@1@P6GHPAX1PAPAX@Z1@Z 1000907a f   libcpmt:xonce.obj
 0001:00008092       ?what@exception@std@@UBEPBDXZ 10009092 f i libcpmt:xonce.obj
 0001:0000809f       ??0_Locimp@locale@std@@AAE@_N@Z 1000909f f i libcpmt:locale0.obj
 0001:000080e0       ??1_Fac_node@std@@QAE@XZ   100090e0 f i libcpmt:locale0.obj
 0001:0000813f       ??1_Fac_tidy_reg_t@std@@QAE@XZ 1000913f f i libcpmt:locale0.obj
 0001:00008166       ??1_Locimp@locale@std@@MAE@XZ 10009166 f i libcpmt:locale0.obj
 0001:000081bf       ??4?$_Yarn@D@std@@QAEAAV01@PBD@Z 100091bf f i libcpmt:locale0.obj
 0001:00008213       ??_G_Locimp@locale@std@@MAEPAXI@Z 10009213 f i libcpmt:locale0.obj
 0001:00008213       ??_E_Locimp@locale@std@@MAEPAXI@Z 10009213 f i libcpmt:locale0.obj
 0001:00008235       ?_Facet_Register@std@@YAXPAV_Facet_base@1@@Z 10009235 f   libcpmt:locale0.obj
 0001:00008261       ?_Getgloballocale@locale@std@@CAPAV_Locimp@12@XZ 10009261 f   libcpmt:locale0.obj
 0001:00008267       ?_Init@locale@std@@CAPAV_Locimp@12@_N@Z 10009267 f   libcpmt:locale0.obj
 0001:000082f7       ?_Locimp_dtor@_Locimp@locale@std@@CAXPAV123@@Z 100092f7 f   libcpmt:locale0.obj
 0001:0000836e       ?_Locinfo_ctor@_Locinfo@std@@SAXPAV12@PBD@Z 1000936e f   libcpmt:locale0.obj
 0001:000083b9       ?_Locinfo_dtor@_Locinfo@std@@SAXPAV12@@Z 100093b9 f   libcpmt:locale0.obj
 0001:000083d3       ?_New_Locimp@_Locimp@locale@std@@CAPAV123@_N@Z 100093d3 f   libcpmt:locale0.obj
 0001:000083f6       ?_Setgloballocale@locale@std@@CAXPAX@Z 100093f6 f   libcpmt:locale0.obj
 0001:0000841e       __Deletegloballocale       1000941e f   libcpmt:locale0.obj
 0001:00008483       ??0bad_alloc@std@@QAE@ABV01@@Z 10009483 f i libcpmt:xthrow.obj
 0001:0000849e       ??0bad_alloc@std@@QAE@XZ   1000949e f i libcpmt:xthrow.obj
 0001:000084b6       ??0length_error@std@@QAE@ABV01@@Z 100094b6 f i libcpmt:xthrow.obj
 0001:000084d1       ??0length_error@std@@QAE@PBD@Z 100094d1 f i libcpmt:xthrow.obj
 0001:000084f0       ??0logic_error@std@@QAE@ABV01@@Z 100094f0 f i libcpmt:xthrow.obj
 0001:0000850b       ??0out_of_range@std@@QAE@ABV01@@Z 1000950b f i libcpmt:xthrow.obj
 0001:00008526       ??0out_of_range@std@@QAE@PBD@Z 10009526 f i libcpmt:xthrow.obj
 0001:00008545       ??1bad_array_new_length@std@@UAE@XZ 10009545 f i LIBCMT:throw_bad_alloc.obj
 0001:00008545       ??1bad_exception@std@@UAE@XZ 10009545 f i libvcruntime:frame.obj
 0001:00008545       ??1bad_alloc@std@@UAE@XZ   10009545 f i libcpmt:xthrow.obj
 0001:00008545       ??1out_of_range@std@@UAE@XZ 10009545 f i libcpmt:xthrow.obj
 0001:00008545       ??1length_error@std@@UAE@XZ 10009545 f i libcpmt:xthrow.obj
 0001:00008556       ?__scrt_throw_std_bad_alloc@@YAXXZ 10009556 f   LIBCMT:throw_bad_alloc.obj
 0001:00008556       ?_Xbad_alloc@std@@YAXXZ    10009556 f   libcpmt:xthrow.obj
 0001:00008573       ?_Xlength_error@std@@YAXPBD@Z 10009573 f   libcpmt:xthrow.obj
 0001:00008593       ?_Xout_of_range@std@@YAXPBD@Z 10009593 f   libcpmt:xthrow.obj
 0001:000085b3       ?_Callfns@ios_base@std@@AAEXW4event@12@@Z 100095b3 f i libcpmt:ios.obj
 0001:000085e6       ?_Ios_base_dtor@ios_base@std@@CAXPAV12@@Z 100095e6 f   libcpmt:ios.obj
 0001:00008626       ?_Tidy@ios_base@std@@AAEXXZ 10009626 f i libcpmt:ios.obj
 0001:0000866e       ?_Syserror_map@std@@YAPBDH@Z 1000966e f   libcpmt:syserror.obj
 0001:00008693       __Getctype                 10009693 f   libcpmt:_tolower.obj
 0001:000086fb       __Tolower                  100096fb f   libcpmt:_tolower.obj
 0001:000087f9       __Getcvt                   100097f9 f   libcpmt:xwctomb.obj
 0001:0000886c       __Toupper                  1000986c f   libcpmt:_toupper.obj
 0001:0000896a       __Mtxdst                   1000996a f   libcpmt:xmtx.obj
 0001:00008978       __Mtxinit                  10009978 f   libcpmt:xmtx.obj
 0001:0000898f       __Mtxlock                  1000998f f   libcpmt:xmtx.obj
 0001:0000899d       __Mtxunlock                1000999d f   libcpmt:xmtx.obj
 0001:00008d55       ___crtInitOnceExecuteOnce  10009d55 f   libcpmt:winapisupp.obj
 0001:00008de3       ___crtInitializeCriticalSectionEx 10009de3 f   libcpmt:winapisupp.obj
 0001:00008e1c       ??1_Init_atexit@@QAE@XZ    10009e1c f i libcpmt:iosptrs.obj
 0001:00008e7f       ?_Atexit@@YAXP6AXXZ@Z      10009e7f f   libcpmt:iosptrs.obj
 0001:00008ead       ___crtLCMapStringA         10009ead f   libcpmt:StlLCMapStringA.obj
 0001:00009082       __freea_crt                1000a082 f i libcpmt:StlLCMapStringA.obj
 0001:000090a0       _GetTableIndexFromLocaleName 1000a0a0 f   libcpmt:winapinls.obj
 0001:000090ee       ___crtDownlevelLocaleNameToLCID 1000a0ee f   libcpmt:winapinls.obj
 0001:00009118       ___crtLCMapStringEx        1000a118 f   libcpmt:winapinls.obj
 0001:0000916f       ___wcsnicmp_ascii          1000a16f f   libcpmt:winapinls.obj
 0001:000091d7       @__security_check_cookie@4 1000a1d7 f   LIBCMT:secchk.obj
 0001:000091e8       ??_V@YAXPAX@Z              1000a1e8 f   LIBCMT:delete_array.obj
 0001:000091ed       ??2@YAPAXI@Z               1000a1ed f   LIBCMT:new_scalar.obj
 0001:0000921d       ??3@YAXPAXI@Z              1000a21d f   LIBCMT:delete_scalar_size.obj
 0001:0000922b       ??_U@YAPAXI@Z              1000a22b f   LIBCMT:new_array.obj
 0001:00009234       ??_Gtype_info@@UAEPAXI@Z   1000a234 f i LIBCMT:std_type_info_static.obj
 0001:00009234       ??_Etype_info@@UAEPAXI@Z   1000a234 f i LIBCMT:std_type_info_static.obj
 0001:00009577       __DllMainCRTStartup@12     1000a577 f   LIBCMT:dll_dllmain.obj
 0001:0000959a       ___raise_securityfailure   1000a59a f   LIBCMT:gs_report.obj
 0001:000095c2       ___report_gsfailure        1000a5c2 f   LIBCMT:gs_report.obj
 0001:000096bb       ___report_rangecheckfailure 1000a6bb f   LIBCMT:gs_report.obj
 0001:000096c7       ___report_securityfailure  1000a6c7 f   LIBCMT:gs_report.obj
 0001:00009795       ??$__crt_fast_encode_pointer@PAX@@YAPAXQAX@Z 1000a795 f i libvcruntime:winapi_downlevel.obj
 0001:00009795       ??$__crt_fast_encode_pointer@PAP6AXXZ@@YAPAP6AXXZQAP6AXXZ@Z 1000a795 f i LIBCMT:utility.obj
 0001:000097f6       ___scrt_acquire_startup_lock 1000a7f6 f   LIBCMT:utility.obj
 0001:00009828       ___scrt_dllmain_after_initialize_c 1000a828 f   LIBCMT:utility.obj
 0001:00009853       ___scrt_dllmain_before_initialize_c 1000a853 f   LIBCMT:utility.obj
 0001:00009861       ___scrt_dllmain_crt_thread_attach 1000a861 f   LIBCMT:utility.obj
 0001:00009880       ___scrt_dllmain_crt_thread_detach 1000a880 f   LIBCMT:utility.obj
 0001:0000988d       ___scrt_dllmain_exception_filter 1000a88d f   LIBCMT:utility.obj
 0001:000098c1       ___scrt_dllmain_uninitialize_c 1000a8c1 f   LIBCMT:utility.obj
 0001:000098e4       ___scrt_dllmain_uninitialize_critical 1000a8e4 f   LIBCMT:utility.obj
 0001:000098f1       ___scrt_initialize_crt     1000a8f1 f   LIBCMT:utility.obj
 0001:0000992a       ___scrt_initialize_onexit_tables 1000a92a f   LIBCMT:utility.obj
 0001:000099cf       ___scrt_is_nonwritable_in_current_image 1000a9cf f   LIBCMT:utility.obj
 0001:00009a63       ___scrt_release_startup_lock 1000aa63 f   LIBCMT:utility.obj
 0001:00009a80       ___scrt_uninitialize_crt   1000aa80 f   LIBCMT:utility.obj
 0001:00009aa8       __onexit                   1000aaa8 f   LIBCMT:utility.obj
 0001:00009ae3       _atexit                    1000aae3 f   LIBCMT:utility.obj
 0001:00009af8       __EH_epilog3               1000aaf8 f   LIBCMT:ehprolg3.obj
 0001:00009b0d       __EH_epilog3_GS            1000ab0d f   LIBCMT:ehprolg3.obj
 0001:00009b1e       __EH_prolog3               1000ab1e f   LIBCMT:ehprolg3.obj
 0001:00009b52       __EH_prolog3_GS            1000ab52 f   LIBCMT:ehprolg3.obj
 0001:00009b89       __EH_prolog3_catch         1000ab89 f   LIBCMT:ehprolg3.obj
 0001:00009bc0       __alloca_probe_16          1000abc0 f   LIBCMT:alloca16.obj
 0001:00009bd6       __alloca_probe_8           1000abd6     LIBCMT:alloca16.obj
 0001:00009bf0       __allmul                   1000abf0 f   LIBCMT:llmul.obj
 0001:00009c30       __aulldiv                  1000ac30 f   LIBCMT:ulldiv.obj
 0001:00009c98       ??3@YAXPAX@Z               1000ac98 f   LIBCMT:delete_scalar.obj
 0001:00009c9d       ??0bad_array_new_length@std@@QAE@ABV01@@Z 1000ac9d f i LIBCMT:throw_bad_alloc.obj
 0001:00009cb8       ??0bad_array_new_length@std@@QAE@XZ 1000acb8 f i LIBCMT:throw_bad_alloc.obj
 0001:00009cd0       ?__scrt_throw_std_bad_array_new_length@@YAXXZ 1000acd0 f   LIBCMT:throw_bad_alloc.obj
 0001:00009d3a       ___security_init_cookie    1000ad3a f   LIBCMT:gs_support.obj
 0001:00009d85       _DllMain@12                1000ad85 f   LIBCMT:dll_dllmain_stub.obj
 0001:00009d8b       ?__scrt_initialize_type_info@@YAXXZ 1000ad8b f   LIBCMT:tncleanup.obj
 0001:00009d97       ?__scrt_uninitialize_type_info@@YAXXZ 1000ad97 f   LIBCMT:tncleanup.obj
 0001:00009da3       ___local_stdio_scanf_options 1000ada3 f i LIBCMT:default_local_stdio_options.obj
 0001:00009da9       ___scrt_initialize_default_local_stdio_options 1000ada9 f   LIBCMT:default_local_stdio_options.obj
 0001:00009dc6       ___scrt_get_dyn_tls_init_callback 1000adc6 f   LIBCMT:dyn_tls_init.obj
 0001:00009dcc       ___scrt_fastfail           1000adcc f   LIBCMT:utility_desktop.obj
 0001:00009ee6       __crt_debugger_hook        1000aee6 f   LIBCMT:utility_desktop.obj
 0001:00009eee       __RTC_Initialize           1000aeee f   LIBCMT:initsect.obj
 0001:00009f1a       __RTC_Terminate            1000af1a f   LIBCMT:initsect.obj
 0001:00009f50       __SEH_prolog4              1000af50 f   LIBCMT:sehprolg4.obj
 0001:00009f96       __SEH_epilog4              1000af96 f   LIBCMT:sehprolg4.obj
 0001:00009fab       ___isa_available_init      1000afab f   LIBCMT:cpu_disp.obj
 0001:0000a142       __get_startup_argv_mode    1000b142 f   LIBCMT:argv_mode.obj
 0001:0000a146       ___scrt_is_ucrt_dll_in_use 1000b146 f   LIBCMT:ucrt_detection.obj
 0001:0000a160       __chkstk                   1000b160 f   LIBCMT:chkstk.obj
 0001:0000a160       __alloca_probe             1000b160 f   LIBCMT:chkstk.obj
 0001:0000a18d       __get_purecall_handler     1000b18d f   libvcruntime:purevirt.obj
 0001:0000a1a2       __purecall                 1000b1a2 f   libvcruntime:purevirt.obj
 0001:0000a1c0       _strstr                    1000b1c0 f   libvcruntime:strstr.obj
 0001:0000a423       ___std_exception_copy      1000b423 f   libvcruntime:std_exception.obj
 0001:0000a486       ___std_exception_destroy   1000b486 f   libvcruntime:std_exception.obj
 0001:0000a4a5       __CxxThrowException@8      1000b4a5 f   libvcruntime:throw.obj
 0001:0000a512       ?GetRangeOfTrysToCheck@__FrameHandler3@@SA?AU?$pair@Viterator@TryBlockMap@__FrameHandler3@@V123@@std@@AAVTryBlockMap@1@HH@Z 1000b512 f   libvcruntime:trnsctrl.obj
 0001:0000a594       ?_CallCatchBlock2@@YAPAXPAUEHRegistrationNode@@PBU_s_FuncInfo@@PAXHK@Z 1000b594 f   libvcruntime:trnsctrl.obj
 0001:0000a5f2       ?_CallSETranslator@@YAHPAUEHExceptionRecord@@PAUEHRegistrationNode@@PAX2PBU_s_FuncInfo@@H1@Z 1000b5f2 f   libvcruntime:trnsctrl.obj
 0001:0000a6cd       ?_JumpToContinuation@@YGXPAXPAUEHRegistrationNode@@@Z 1000b6cd f   libvcruntime:trnsctrl.obj
 0001:0000a6fd       ?_UnwindNestedFrames@@YGXPAUEHRegistrationNode@@PAUEHExceptionRecord@@@Z 1000b6fd f   libvcruntime:trnsctrl.obj
 0001:0000a750       __CatchGuardHandler        1000b750 f   libvcruntime:trnsctrl.obj
 0001:0000a781       __CreateFrameInfo          1000b781 f   libvcruntime:trnsctrl.obj
 0001:0000a7a5       __FindAndUnlinkFrame       1000b7a5 f   libvcruntime:trnsctrl.obj
 0001:0000a7ea       __TranslatorGuardHandler   1000b7ea f   libvcruntime:trnsctrl.obj
 0001:0000a887       ___CxxFrameHandler3        1000b887 f   libvcruntime:trnsctrl.obj
 0001:0000a8c0       _memcpy                    1000b8c0 f   libvcruntime:memcpy.obj
 0001:0000ae40       _memmove                   1000be40 f   libvcruntime:memmove.obj
 0001:0000b3c0       _memset                    1000c3c0 f   libvcruntime:memset.obj
 0001:0000b51a       ___DestructExceptionObject 1000c51a f   libvcruntime:ehhelpers.obj
 0001:0000b5ba       ?_CallMemberFunction0@@YGXQAX0@Z 1000c5ba f i libvcruntime:ehhelpers.obj
 0001:0000b5c7       __IsExceptionObjectToBeDestroyed 1000c5c7 f   libvcruntime:ehhelpers.obj
 0001:0000b5ed       ___AdjustPointer           1000c5ed f   libvcruntime:ehhelpers.obj
 0001:0000b612       ___FrameUnwindFilter       1000c612 f   libvcruntime:ehhelpers.obj
 0001:0000b660       _memchr                    1000c660 f   libvcruntime:memchr.obj
 0001:0000b70d       _memcmp                    1000c70d f   libvcruntime:memcmp.obj
 0001:0000c700       __except_handler4          1000d700 f   libvcruntime:chandler4.obj
 0001:0000c857       ___vcrt_initialize         1000d857 f   libvcruntime:initialization.obj
 0001:0000c880       ___vcrt_thread_attach      1000d880 f   libvcruntime:initialization.obj
 0001:0000c88b       ___vcrt_thread_detach      1000d88b f   libvcruntime:initialization.obj
 0001:0000c896       ___vcrt_uninitialize       1000d896 f   libvcruntime:initialization.obj
 0001:0000c8b5       ___vcrt_uninitialize_critical 1000d8b5 f   libvcruntime:initialization.obj
 0001:0000c8bd       ___std_type_info_compare   1000d8bd f   libvcruntime:std_type_info.obj
 0001:0000c8f9       ___std_type_info_destroy_list 1000d8f9 f   libvcruntime:std_type_info.obj
 0001:0000c91c       ___vcrt_initialize_pure_virtual_call_handler 1000d91c f   libvcruntime:purevirt_data.obj
 0001:0000c930       _strchr                    1000d930 f   libvcruntime:strchr.obj
 0001:0000c99e       ___from_strstr_to_strchr   1000d99e     libvcruntime:strchr.obj
 0001:0000ca5b       ___vcrt_freefls@4          1000da5b f   libvcruntime:per_thread_data.obj
 0001:0000ca77       ___vcrt_freeptd            1000da77 f   libvcruntime:per_thread_data.obj
 0001:0000caad       ___vcrt_getptd             1000daad f   libvcruntime:per_thread_data.obj
 0001:0000cabb       ___vcrt_getptd_noexit      1000dabb f   libvcruntime:per_thread_data.obj
 0001:0000cb4d       ___vcrt_initialize_ptd     1000db4d f   libvcruntime:per_thread_data.obj
 0001:0000cb80       ___vcrt_uninitialize_ptd   1000db80 f   libvcruntime:per_thread_data.obj
 0001:0000d292       ??$TypeMatchHelper@$$CBU_s_HandlerType@@@@YAHPBU_s_HandlerType@@PBU_s_CatchableType@@PBU_s_ThrowInfo@@@Z 1000e292 f i libvcruntime:frame.obj
 0001:0000d320       ??$__InternalCxxFrameHandler@V__FrameHandler3@@@@YA?AW4_EXCEPTION_DISPOSITION@@PAUEHExceptionRecord@@PAUEHRegistrationNode@@PAU_CONTEXT@@PAXPBU_s_FuncInfo@@H1E@Z 1000e320 f i libvcruntime:frame.obj
 0001:0000d422       ??0bad_exception@std@@QAE@ABV01@@Z 1000e422 f i libvcruntime:frame.obj
 0001:0000d43d       ??0bad_exception@std@@QAE@XZ 1000e43d f i libvcruntime:frame.obj
 0001:0000d455       ??8type_info@@QBE_NABV0@@Z 1000e455 f i libvcruntime:frame.obj
 0001:0000d6bc       ?FrameUnwindToEmptyState@__FrameHandler3@@SAXPAUEHRegistrationNode@@PAXPBU_s_FuncInfo@@@Z 1000e6bc f   libvcruntime:frame.obj
 0001:0000d6d4       ?FrameUnwindToState@__FrameHandler3@@SAXPAUEHRegistrationNode@@PAXPBU_s_FuncInfo@@H@Z 1000e6d4 f   libvcruntime:frame.obj
 0001:0000d856       ?_CallMemberFunction1@@YGXQAX00@Z 1000e856 f i libvcruntime:frame.obj
 0001:0000d866       ?_CallMemberFunction2@@YGXQAX00H@Z 1000e866 f i libvcruntime:frame.obj
 0001:0000d879       ?getESTypes@__FrameHandler3@@SAPBU_s_ESTypeList@@PBU_s_FuncInfo@@@Z 1000e879 f i libvcruntime:frame.obj
 0001:0000d890       __CallSettingFrame@12      1000e890 f   libvcruntime:lowhelpr.obj
 0001:0000d8b7       __NLG_Return               1000e8b7     libvcruntime:lowhelpr.obj
 0001:0000d8dc       ___except_validate_context_record 1000e8dc f   libvcruntime:jbcxrval.obj
 0001:0000d90c       ___except_validate_jump_buffer 1000e90c f   libvcruntime:jbcxrval.obj
 0001:0000d940       __local_unwind4            1000e940 f   libvcruntime:exsup4.obj
 0001:0000da18       __seh_longjmp_unwind4@4    1000ea18 f   libvcruntime:exsup4.obj
 0001:0000da40       @_EH4_CallFilterFunc@8     1000ea40 f   libvcruntime:exsup4.obj
 0001:0000da58       @_EH4_TransferToHandler@8  1000ea58 f   libvcruntime:exsup4.obj
 0001:0000da74       @_EH4_GlobalUnwind2@8      1000ea74 f   libvcruntime:exsup4.obj
 0001:0000da90       @_EH4_LocalUnwind@16       1000ea90 f   libvcruntime:exsup4.obj
 0001:0000daa7       ___vcrt_initialize_locks   1000eaa7 f   libvcruntime:locks.obj
 0001:0000dae3       ___vcrt_uninitialize_locks 1000eae3 f   libvcruntime:locks.obj
 0001:0000dc45       ___vcrt_FlsAlloc           1000ec45 f   libvcruntime:winapi_downlevel.obj
 0001:0000dc80       ___vcrt_FlsFree            1000ec80 f   libvcruntime:winapi_downlevel.obj
 0001:0000dcbb       ___vcrt_FlsGetValue        1000ecbb f   libvcruntime:winapi_downlevel.obj
 0001:0000dcf6       ___vcrt_FlsSetValue        1000ecf6 f   libvcruntime:winapi_downlevel.obj
 0001:0000dd34       ___vcrt_InitializeCriticalSectionEx 1000ed34 f   libvcruntime:winapi_downlevel.obj
 0001:0000dd7b       ___vcrt_initialize_winapi_thunks 1000ed7b f   libvcruntime:winapi_downlevel.obj
 0001:0000dda4       ___vcrt_uninitialize_winapi_thunks 1000eda4 f   libvcruntime:winapi_downlevel.obj
 0001:0000ddd6       _unexpected                1000edd6 f   libvcruntime:unexpected.obj
 0001:0000ddf3       ?GetCurrentState@__FrameHandler3@@SAHPAUEHRegistrationNode@@PAXPBU_s_FuncInfo@@@Z 1000edf3 f   libvcruntime:ehstate.obj
 0001:0000de10       ?SetState@__FrameHandler3@@SAXPAUEHRegistrationNode@@PBU_s_FuncInfo@@H@Z 1000ee10 f   libvcruntime:ehstate.obj
 0001:0000de20       __global_unwind2           1000ee20 f   libvcruntime:exsup.obj
 0001:0000de86       __local_unwind2            1000ee86 f   libvcruntime:exsup.obj
 0001:0000df0a       __abnormal_termination     1000ef0a f   libvcruntime:exsup.obj
 0001:0000df30       __NLG_Notify1              1000ef30 f   libvcruntime:exsup.obj
 0001:0000df3c       __NLG_Notify               1000ef3c f   libvcruntime:exsup.obj
 0001:0000df53       __NLG_Dispatch2            1000ef53     libvcruntime:exsup.obj
 0001:0000df53       __NLG_Dispatch             1000ef53     libvcruntime:exsup.obj
 0001:0000df5b       __NLG_Call                 1000ef5b f   libvcruntime:exsup.obj
 0001:0000df5d       __NLG_Return2              1000ef5d     libvcruntime:exsup.obj
 0001:0000df5e       _abort                     1000ef5e f   libucrt:abort.obj
 0001:0000dfa2       _calloc                    1000efa2 f   libucrt:calloc.obj
 0001:0000dfad       ??0_LocaleUpdate@@QAE@QAU__crt_locale_pointers@@@Z 1000efad f i libucrt:mbstowcs.obj
 0001:0000e030       ??1_LocaleUpdate@@QAE@XZ   1000f030 f i libucrt:mbstowcs.obj
 0001:0000e1e5       __mbstowcs_l               1000f1e5 f   libucrt:mbstowcs.obj
 0001:0000e1f0       __mbstowcs_s_l             1000f1f0 f   libucrt:mbstowcs.obj
 0001:0000e2d2       _mbstowcs                  1000f2d2 f   libucrt:mbstowcs.obj
 0001:0000e2fc       _mbstowcs_s                1000f2fc f   libucrt:mbstowcs.obj
 0001:0000e31c       ___acrt_call_reportfault   1000f31c f   libucrt:invalid_parameter.obj
 0001:0000e457       ___acrt_initialize_invalid_parameter_handler 1000f457 f   libucrt:invalid_parameter.obj
 0001:0000e466       __invalid_parameter        1000f466 f   libucrt:invalid_parameter.obj
 0001:0000e4e1       __invalid_parameter_noinfo 1000f4e1 f   libucrt:invalid_parameter.obj
 0001:0000e4f1       __invalid_parameter_noinfo_noreturn 1000f4f1 f   libucrt:invalid_parameter.obj
 0001:0000e50e       __invoke_watson            1000f50e f   libucrt:invalid_parameter.obj
 0001:0000e550       _strcspn                   1000f550 f   libucrt:strcspn.obj
 0001:0000e968       ??$count@D@formatting_buffer@__crt_stdio_output@@QBEIXZ 1000f968 f i libucrt:output.obj
 0001:0000e980       ??$count@_W@formatting_buffer@__crt_stdio_output@@QBEIXZ 1000f980 f i libucrt:output.obj
 0001:0000e999       ??$ensure_buffer_is_big_enough@D@formatting_buffer@__crt_stdio_output@@QAE_NI@Z 1000f999 f i libucrt:output.obj
 0001:0000ea18       ??$ensure_buffer_is_big_enough@_W@formatting_buffer@__crt_stdio_output@@QAE_NI@Z 1000fa18 f i libucrt:output.obj
 0001:0000ea98       ??$is_wide_character_specifier@D@__crt_stdio_output@@YA_N_KDW4length_modifier@0@@Z 1000fa98 f i libucrt:output.obj
 0001:0000eac9       ??$is_wide_character_specifier@_W@__crt_stdio_output@@YA_N_K_WW4length_modifier@0@@Z 1000fac9 f i libucrt:output.obj
 0001:0000eb17       ??$scratch_data@D@formatting_buffer@__crt_stdio_output@@QAEPADXZ 1000fb17 f i libucrt:output.obj
 0001:0000eb35       ??$type_case_integer_parse_into_buffer@I@?$output_processor@DV?$string_output_adapter@D@__crt_stdio_output@@V?$format_validation_base@DV?$string_output_adapter@D@__crt_stdio_output@@@2@@__crt_stdio_output@@AAEXII_N@Z 1000fb35 f i libucrt:output.obj
 0001:0000eba8       ??$type_case_integer_parse_into_buffer@I@?$output_processor@_WV?$stream_output_adapter@_W@__crt_stdio_output@@V?$standard_base@_WV?$stream_output_adapter@_W@__crt_stdio_output@@@2@@__crt_stdio_output@@AAEXII_N@Z 1000fba8 f i libucrt:output.obj
 0001:0000eba8       ??$type_case_integer_parse_into_buffer@I@?$output_processor@_WV?$string_output_adapter@_W@__crt_stdio_output@@V?$standard_base@_WV?$string_output_adapter@_W@__crt_stdio_output@@@2@@__crt_stdio_output@@AAEXII_N@Z 1000fba8 f i libucrt:output.obj
 0001:0000ec28       ??$type_case_integer_parse_into_buffer@_K@?$output_processor@DV?$string_output_adapter@D@__crt_stdio_output@@V?$format_validation_base@DV?$string_output_adapter@D@__crt_stdio_output@@@2@@__crt_stdio_output@@AAEX_KI_N@Z 1000fc28 f i libucrt:output.obj
 0001:0000ecb7       ??$type_case_integer_parse_into_buffer@_K@?$output_processor@_WV?$string_output_adapter@_W@__crt_stdio_output@@V?$standard_base@_WV?$string_output_adapter@_W@__crt_stdio_output@@@2@@__crt_stdio_output@@AAEX_KI_N@Z 1000fcb7 f i libucrt:output.obj
 0001:0000ecb7       ??$type_case_integer_parse_into_buffer@_K@?$output_processor@_WV?$stream_output_adapter@_W@__crt_stdio_output@@V?$standard_base@_WV?$stream_output_adapter@_W@__crt_stdio_output@@@2@@__crt_stdio_output@@AAEX_KI_N@Z 1000fcb7 f i libucrt:output.obj
 0001:0000ed53       ??$write_multiple_characters@V?$stream_output_adapter@_W@__crt_stdio_output@@D@__crt_stdio_output@@YAXABV?$stream_output_adapter@_W@0@DHQAH@Z 1000fd53 f i libucrt:output.obj
 0001:0000ed93       ??$write_multiple_characters@V?$string_output_adapter@D@__crt_stdio_output@@D@__crt_stdio_output@@YAXABV?$string_output_adapter@D@0@DHQAH@Z 1000fd93 f i libucrt:output.obj
 0001:0000edbf       ??$write_multiple_characters@V?$string_output_adapter@_W@__crt_stdio_output@@D@__crt_stdio_output@@YAXABV?$string_output_adapter@_W@0@DHQAH@Z 1000fdbf f i libucrt:output.obj
 0001:0000edf0       ??0?$common_data@D@__crt_stdio_output@@IAE@XZ 1000fdf0 f i libucrt:output.obj
 0001:0000ee37       ??0?$common_data@_W@__crt_stdio_output@@IAE@XZ 1000fe37 f i libucrt:output.obj
 0001:0000ee83       ??0?$output_adapter_data@DV?$string_output_adapter@D@__crt_stdio_output@@@__crt_stdio_output@@IAE@ABV?$string_output_adapter@D@1@_KQBDQAU__crt_locale_pointers@@QAD@Z 1000fe83 f i libucrt:output.obj
 0001:0000eebf       ??0?$output_adapter_data@_WV?$string_output_adapter@_W@__crt_stdio_output@@@__crt_stdio_output@@IAE@ABV?$string_output_adapter@_W@1@_KQB_WQAU__crt_locale_pointers@@QAD@Z 1000febf f i libucrt:output.obj
 0001:0000eebf       ??0?$output_adapter_data@_WV?$stream_output_adapter@_W@__crt_stdio_output@@@__crt_stdio_output@@IAE@ABV?$stream_output_adapter@_W@1@_KQB_WQAU__crt_locale_pointers@@QAD@Z 1000febf f i libucrt:output.obj
 0001:0000eefb       ??1formatting_buffer@__crt_stdio_output@@QAE@XZ 1000fefb f i libucrt:output.obj
 0001:0000ef15       ??4?$__crt_unique_heap_ptr@DU__crt_internal_free_policy@@@@QAEAAV0@$$QAV0@@Z 1000ff15 f i libucrt:output.obj
 0001:0000effa       ?crop_zeroes@__crt_stdio_output@@YAXPADQAU__crt_locale_pointers@@@Z 1000fffa f i libucrt:output.obj
 0001:0000f05a       ?find_next_state@?$output_processor@DV?$string_output_adapter@D@__crt_stdio_output@@V?$format_validation_base@DV?$string_output_adapter@D@__crt_stdio_output@@@2@@__crt_stdio_output@@ABE?AW4state@2@DW432@@Z 1001005a f i libucrt:output.obj
 0001:0000f09c       ?find_next_state@?$output_processor@_WV?$stream_output_adapter@_W@__crt_stdio_output@@V?$standard_base@_WV?$stream_output_adapter@_W@__crt_stdio_output@@@2@@__crt_stdio_output@@ABE?AW4state@2@_WW432@@Z 1001009c f i libucrt:output.obj
 0001:0000f09c       ?find_next_state@?$output_processor@_WV?$string_output_adapter@_W@__crt_stdio_output@@V?$standard_base@_WV?$string_output_adapter@_W@__crt_stdio_output@@@2@@__crt_stdio_output@@ABE?AW4state@2@_WW432@@Z 1001009c f i libucrt:output.obj
 0001:0000f0dd       ?force_decimal_point@__crt_stdio_output@@YAXPADQAU__crt_locale_pointers@@@Z 100100dd f i libucrt:output.obj
 0001:0000f139       ?parse_int_from_format_string@?$output_processor@DV?$string_output_adapter@D@__crt_stdio_output@@V?$format_validation_base@DV?$string_output_adapter@D@__crt_stdio_output@@@2@@__crt_stdio_output@@AAE_NQAH@Z 10010139 f i libucrt:output.obj
 0001:0000f1af       ?parse_int_from_format_string@?$output_processor@_WV?$string_output_adapter@_W@__crt_stdio_output@@V?$standard_base@_WV?$string_output_adapter@_W@__crt_stdio_output@@@2@@__crt_stdio_output@@AAE_NQAH@Z 100101af f i libucrt:output.obj
 0001:0000f1af       ?parse_int_from_format_string@?$output_processor@_WV?$stream_output_adapter@_W@__crt_stdio_output@@V?$standard_base@_WV?$stream_output_adapter@_W@__crt_stdio_output@@@2@@__crt_stdio_output@@AAE_NQAH@Z 100101af f i libucrt:output.obj
 0001:0000f227       ?process@?$output_processor@DV?$string_output_adapter@D@__crt_stdio_output@@V?$format_validation_base@DV?$string_output_adapter@D@__crt_stdio_output@@@2@@__crt_stdio_output@@QAEHXZ 10010227 f i libucrt:output.obj
 0001:0000f34f       ?process@?$output_processor@_WV?$stream_output_adapter@_W@__crt_stdio_output@@V?$standard_base@_WV?$stream_output_adapter@_W@__crt_stdio_output@@@2@@__crt_stdio_output@@QAEHXZ 1001034f f i libucrt:output.obj
 0001:0000f46f       ?process@?$output_processor@_WV?$string_output_adapter@_W@__crt_stdio_output@@V?$standard_base@_WV?$string_output_adapter@_W@__crt_stdio_output@@@2@@__crt_stdio_output@@QAEHXZ 1001046f f i libucrt:output.obj
 0001:0000f58f       ?state_case_flag@?$output_processor@DV?$string_output_adapter@D@__crt_stdio_output@@V?$format_validation_base@DV?$string_output_adapter@D@__crt_stdio_output@@@2@@__crt_stdio_output@@AAE_NXZ 1001058f f i libucrt:output.obj
 0001:0000f5cc       ?state_case_flag@?$output_processor@_WV?$string_output_adapter@_W@__crt_stdio_output@@V?$standard_base@_WV?$string_output_adapter@_W@__crt_stdio_output@@@2@@__crt_stdio_output@@AAE_NXZ 100105cc f i libucrt:output.obj
 0001:0000f5cc       ?state_case_flag@?$output_processor@_WV?$stream_output_adapter@_W@__crt_stdio_output@@V?$standard_base@_WV?$stream_output_adapter@_W@__crt_stdio_output@@@2@@__crt_stdio_output@@AAE_NXZ 100105cc f i libucrt:output.obj
 0001:0000f609       ?state_case_normal@?$output_processor@DV?$string_output_adapter@D@__crt_stdio_output@@V?$format_validation_base@DV?$string_output_adapter@D@__crt_stdio_output@@@2@@__crt_stdio_output@@AAE_NXZ 10010609 f i libucrt:output.obj
 0001:0000f628       ?state_case_normal@?$output_processor@_WV?$stream_output_adapter@_W@__crt_stdio_output@@V?$standard_base@_WV?$stream_output_adapter@_W@__crt_stdio_output@@@2@@__crt_stdio_output@@AAE_NXZ 10010628 f i libucrt:output.obj
 0001:0000f647       ?state_case_normal@?$output_processor@_WV?$string_output_adapter@_W@__crt_stdio_output@@V?$standard_base@_WV?$string_output_adapter@_W@__crt_stdio_output@@@2@@__crt_stdio_output@@AAE_NXZ 10010647 f i libucrt:output.obj
 0001:0000f666       ?state_case_normal_common@?$output_processor@DV?$string_output_adapter@D@__crt_stdio_output@@V?$format_validation_base@DV?$string_output_adapter@D@__crt_stdio_output@@@2@@__crt_stdio_output@@AAE_NXZ 10010666 f i libucrt:output.obj
 0001:0000f690       ?state_case_normal_common@?$output_processor@_WV?$stream_output_adapter@_W@__crt_stdio_output@@V?$standard_base@_WV?$stream_output_adapter@_W@__crt_stdio_output@@@2@@__crt_stdio_output@@AAE_NXZ 10010690 f i libucrt:output.obj
 0001:0000f6ba       ?state_case_normal_common@?$output_processor@_WV?$string_output_adapter@_W@__crt_stdio_output@@V?$standard_base@_WV?$string_output_adapter@_W@__crt_stdio_output@@@2@@__crt_stdio_output@@AAE_NXZ 100106ba f i libucrt:output.obj
 0001:0000f6d5       ?state_case_normal_tchar@?$output_processor@DV?$string_output_adapter@D@__crt_stdio_output@@V?$format_validation_base@DV?$string_output_adapter@D@__crt_stdio_output@@@2@@__crt_stdio_output@@AAE_ND@Z 100106d5 f i libucrt:output.obj
 0001:0000f72e       ?state_case_precision@?$output_processor@DV?$string_output_adapter@D@__crt_stdio_output@@V?$format_validation_base@DV?$string_output_adapter@D@__crt_stdio_output@@@2@@__crt_stdio_output@@AAE_NXZ 1001072e f i libucrt:output.obj
 0001:0000f754       ?state_case_precision@?$output_processor@_WV?$stream_output_adapter@_W@__crt_stdio_output@@V?$standard_base@_WV?$stream_output_adapter@_W@__crt_stdio_output@@@2@@__crt_stdio_output@@AAE_NXZ 10010754 f i libucrt:output.obj
 0001:0000f754       ?state_case_precision@?$output_processor@_WV?$string_output_adapter@_W@__crt_stdio_output@@V?$standard_base@_WV?$string_output_adapter@_W@__crt_stdio_output@@@2@@__crt_stdio_output@@AAE_NXZ 10010754 f i libucrt:output.obj
 0001:0000f77b       ?state_case_size@?$output_processor@DV?$string_output_adapter@D@__crt_stdio_output@@V?$format_validation_base@DV?$string_output_adapter@D@__crt_stdio_output@@@2@@__crt_stdio_output@@AAE_NXZ 1001077b f i libucrt:output.obj
 0001:0000f8d5       ?state_case_size@?$output_processor@_WV?$stream_output_adapter@_W@__crt_stdio_output@@V?$standard_base@_WV?$stream_output_adapter@_W@__crt_stdio_output@@@2@@__crt_stdio_output@@AAE_NXZ 100108d5 f i libucrt:output.obj
 0001:0000fa42       ?state_case_size@?$output_processor@_WV?$string_output_adapter@_W@__crt_stdio_output@@V?$standard_base@_WV?$string_output_adapter@_W@__crt_stdio_output@@@2@@__crt_stdio_output@@AAE_NXZ 10010a42 f i libucrt:output.obj
 0001:0000fbaf       ?state_case_type@?$output_processor@DV?$string_output_adapter@D@__crt_stdio_output@@V?$format_validation_base@DV?$string_output_adapter@D@__crt_stdio_output@@@2@@__crt_stdio_output@@AAE_NXZ 10010baf f i libucrt:output.obj
 0001:0000fdd8       ?state_case_type@?$output_processor@_WV?$stream_output_adapter@_W@__crt_stdio_output@@V?$standard_base@_WV?$stream_output_adapter@_W@__crt_stdio_output@@@2@@__crt_stdio_output@@AAE_NXZ 10010dd8 f i libucrt:output.obj
 0001:0001003f       ?state_case_type@?$output_processor@_WV?$string_output_adapter@_W@__crt_stdio_output@@V?$standard_base@_WV?$string_output_adapter@_W@__crt_stdio_output@@@2@@__crt_stdio_output@@AAE_NXZ 1001103f f i libucrt:output.obj
 0001:000102a6       ?state_case_width@?$output_processor@DV?$string_output_adapter@D@__crt_stdio_output@@V?$format_validation_base@DV?$string_output_adapter@D@__crt_stdio_output@@@2@@__crt_stdio_output@@AAE_NXZ 100112a6 f i libucrt:output.obj
 0001:000102d1       ?state_case_width@?$output_processor@_WV?$stream_output_adapter@_W@__crt_stdio_output@@V?$standard_base@_WV?$stream_output_adapter@_W@__crt_stdio_output@@@2@@__crt_stdio_output@@AAE_NXZ 100112d1 f i libucrt:output.obj
 0001:000102d1       ?state_case_width@?$output_processor@_WV?$string_output_adapter@_W@__crt_stdio_output@@V?$standard_base@_WV?$string_output_adapter@_W@__crt_stdio_output@@@2@@__crt_stdio_output@@AAE_NXZ 100112d1 f i libucrt:output.obj
 0001:000102fd       ?to_integer_size@__crt_stdio_output@@YAIW4length_modifier@1@@Z 100112fd f i libucrt:output.obj
 0001:00010359       ?type_case_Z@?$output_processor@DV?$string_output_adapter@D@__crt_stdio_output@@V?$format_validation_base@DV?$string_output_adapter@D@__crt_stdio_output@@@2@@__crt_stdio_output@@AAE_NXZ 10011359 f i libucrt:output.obj
 0001:000103ba       ?type_case_Z@?$output_processor@_WV?$string_output_adapter@_W@__crt_stdio_output@@V?$standard_base@_WV?$string_output_adapter@_W@__crt_stdio_output@@@2@@__crt_stdio_output@@AAE_NXZ 100113ba f i libucrt:output.obj
 0001:000103ba       ?type_case_Z@?$output_processor@_WV?$stream_output_adapter@_W@__crt_stdio_output@@V?$standard_base@_WV?$stream_output_adapter@_W@__crt_stdio_output@@@2@@__crt_stdio_output@@AAE_NXZ 100113ba f i libucrt:output.obj
 0001:0001041b       ?type_case_a@?$output_processor@DV?$string_output_adapter@D@__crt_stdio_output@@V?$format_validation_base@DV?$string_output_adapter@D@__crt_stdio_output@@@2@@__crt_stdio_output@@AAE_NXZ 1001141b f i libucrt:output.obj
 0001:00010574       ?type_case_a@?$output_processor@_WV?$stream_output_adapter@_W@__crt_stdio_output@@V?$standard_base@_WV?$stream_output_adapter@_W@__crt_stdio_output@@@2@@__crt_stdio_output@@AAE_NXZ 10011574 f i libucrt:output.obj
 0001:00010574       ?type_case_a@?$output_processor@_WV?$string_output_adapter@_W@__crt_stdio_output@@V?$standard_base@_WV?$string_output_adapter@_W@__crt_stdio_output@@@2@@__crt_stdio_output@@AAE_NXZ 10011574 f i libucrt:output.obj
 0001:000106e3       ?type_case_c_tchar@?$output_processor@DV?$string_output_adapter@D@__crt_stdio_output@@V?$format_validation_base@DV?$string_output_adapter@D@__crt_stdio_output@@@2@@__crt_stdio_output@@AAE_ND@Z 100116e3 f i libucrt:output.obj
 0001:00010773       ?type_case_c_tchar@?$output_processor@_WV?$stream_output_adapter@_W@__crt_stdio_output@@V?$standard_base@_WV?$stream_output_adapter@_W@__crt_stdio_output@@@2@@__crt_stdio_output@@AAE_N_W@Z 10011773 f i libucrt:output.obj
 0001:00010773       ?type_case_c_tchar@?$output_processor@_WV?$string_output_adapter@_W@__crt_stdio_output@@V?$standard_base@_WV?$string_output_adapter@_W@__crt_stdio_output@@@2@@__crt_stdio_output@@AAE_N_W@Z 10011773 f i libucrt:output.obj
 0001:0001080b       ?type_case_integer@?$output_processor@DV?$string_output_adapter@D@__crt_stdio_output@@V?$format_validation_base@DV?$string_output_adapter@D@__crt_stdio_output@@@2@@__crt_stdio_output@@AAE_NI_N@Z 1001180b f i libucrt:output.obj
 0001:0001095e       ?type_case_integer@?$output_processor@_WV?$string_output_adapter@_W@__crt_stdio_output@@V?$standard_base@_WV?$string_output_adapter@_W@__crt_stdio_output@@@2@@__crt_stdio_output@@AAE_NI_N@Z 1001195e f i libucrt:output.obj
 0001:0001095e       ?type_case_integer@?$output_processor@_WV?$stream_output_adapter@_W@__crt_stdio_output@@V?$standard_base@_WV?$stream_output_adapter@_W@__crt_stdio_output@@@2@@__crt_stdio_output@@AAE_NI_N@Z 1001195e f i libucrt:output.obj
 0001:00010ab5       ?type_case_n@?$output_processor@_WV?$stream_output_adapter@_W@__crt_stdio_output@@V?$standard_base@_WV?$stream_output_adapter@_W@__crt_stdio_output@@@2@@__crt_stdio_output@@AAE_NXZ 10011ab5 f i libucrt:output.obj
 0001:00010ab5       ?type_case_n@?$output_processor@_WV?$string_output_adapter@_W@__crt_stdio_output@@V?$standard_base@_WV?$string_output_adapter@_W@__crt_stdio_output@@@2@@__crt_stdio_output@@AAE_NXZ 10011ab5 f i libucrt:output.obj
 0001:00010ab5       ?type_case_n@?$output_processor@DV?$string_output_adapter@D@__crt_stdio_output@@V?$format_validation_base@DV?$string_output_adapter@D@__crt_stdio_output@@@2@@__crt_stdio_output@@AAE_NXZ 10011ab5 f i libucrt:output.obj
 0001:00010b29       ?type_case_o@?$output_processor@DV?$string_output_adapter@D@__crt_stdio_output@@V?$format_validation_base@DV?$string_output_adapter@D@__crt_stdio_output@@@2@@__crt_stdio_output@@AAE_NXZ 10011b29 f i libucrt:output.obj
 0001:00010b48       ?type_case_o@?$output_processor@_WV?$stream_output_adapter@_W@__crt_stdio_output@@V?$standard_base@_WV?$stream_output_adapter@_W@__crt_stdio_output@@@2@@__crt_stdio_output@@AAE_NXZ 10011b48 f i libucrt:output.obj
 0001:00010b48       ?type_case_o@?$output_processor@_WV?$string_output_adapter@_W@__crt_stdio_output@@V?$standard_base@_WV?$string_output_adapter@_W@__crt_stdio_output@@@2@@__crt_stdio_output@@AAE_NXZ 10011b48 f i libucrt:output.obj
 0001:00010b67       ?type_case_p@?$output_processor@DV?$string_output_adapter@D@__crt_stdio_output@@V?$format_validation_base@DV?$string_output_adapter@D@__crt_stdio_output@@@2@@__crt_stdio_output@@AAE_NXZ 10011b67 f i libucrt:output.obj
 0001:00010b7f       ?type_case_p@?$output_processor@_WV?$string_output_adapter@_W@__crt_stdio_output@@V?$standard_base@_WV?$string_output_adapter@_W@__crt_stdio_output@@@2@@__crt_stdio_output@@AAE_NXZ 10011b7f f i libucrt:output.obj
 0001:00010b7f       ?type_case_p@?$output_processor@_WV?$stream_output_adapter@_W@__crt_stdio_output@@V?$standard_base@_WV?$stream_output_adapter@_W@__crt_stdio_output@@@2@@__crt_stdio_output@@AAE_NXZ 10011b7f f i libucrt:output.obj
 0001:00010b97       ?type_case_s@?$output_processor@DV?$string_output_adapter@D@__crt_stdio_output@@V?$format_validation_base@DV?$string_output_adapter@D@__crt_stdio_output@@@2@@__crt_stdio_output@@AAE_NXZ 10011b97 f i libucrt:output.obj
 0001:00010c08       ?type_case_s@?$output_processor@_WV?$stream_output_adapter@_W@__crt_stdio_output@@V?$standard_base@_WV?$stream_output_adapter@_W@__crt_stdio_output@@@2@@__crt_stdio_output@@AAE_NXZ 10011c08 f i libucrt:output.obj
 0001:00010c08       ?type_case_s@?$output_processor@_WV?$string_output_adapter@_W@__crt_stdio_output@@V?$standard_base@_WV?$string_output_adapter@_W@__crt_stdio_output@@@2@@__crt_stdio_output@@AAE_NXZ 10011c08 f i libucrt:output.obj
 0001:00010c7b       ?type_case_s_compute_narrow_string_length@?$output_processor@_WV?$stream_output_adapter@_W@__crt_stdio_output@@V?$standard_base@_WV?$stream_output_adapter@_W@__crt_stdio_output@@@2@@__crt_stdio_output@@ABEHH_W@Z 10011c7b f i libucrt:output.obj
 0001:00010c7b       ?type_case_s_compute_narrow_string_length@?$output_processor@_WV?$string_output_adapter@_W@__crt_stdio_output@@V?$standard_base@_WV?$string_output_adapter@_W@__crt_stdio_output@@@2@@__crt_stdio_output@@ABEHH_W@Z 10011c7b f i libucrt:output.obj
 0001:00010cb8       ?validate@?$c_string_character_source@D@__crt_strtox@@QBE_NXZ 10011cb8 f i libucrt:strtox.obj
 0001:00010cb8       ?validate@?$stream_output_adapter@_W@__crt_stdio_output@@QBE_NXZ 10011cb8 f i libucrt:output.obj
 0001:00010cb8       ?validate@?$c_string_character_source@_W@__crt_strtox@@QBE_NXZ 10011cb8 f i libucrt:strtox.obj
 0001:00010cb8       ?validate@?$string_output_adapter@_W@__crt_stdio_output@@QBE_NXZ 10011cb8 f i libucrt:output.obj
 0001:00010cb8       ?validate@?$string_output_adapter@D@__crt_stdio_output@@QBE_NXZ 10011cb8 f i libucrt:output.obj
 0001:00010cd3       ?validate_and_update_state_at_end_of_format_string@?$format_validation_base@DV?$string_output_adapter@D@__crt_stdio_output@@@__crt_stdio_output@@IBE_NXZ 10011cd3 f i libucrt:output.obj
 0001:00010cf5       ?write_character@?$string_output_adapter@D@__crt_stdio_output@@QBE_NDQAH@Z 10011cf5 f i libucrt:output.obj
 0001:00010d37       ?write_character@?$string_output_adapter@_W@__crt_stdio_output@@QBE_N_WQAH@Z 10011d37 f i libucrt:output.obj
 0001:00010d7c       ?write_character_without_count_update@?$stream_output_adapter@_W@__crt_stdio_output@@QBE_N_W@Z 10011d7c f i libucrt:output.obj
 0001:00010db4       ?write_stored_string_tchar@?$output_processor@DV?$string_output_adapter@D@__crt_stdio_output@@V?$format_validation_base@DV?$string_output_adapter@D@__crt_stdio_output@@@2@@__crt_stdio_output@@AAE_ND@Z 10011db4 f i libucrt:output.obj
 0001:00010e5d       ?write_stored_string_tchar@?$output_processor@_WV?$stream_output_adapter@_W@__crt_stdio_output@@V?$standard_base@_WV?$stream_output_adapter@_W@__crt_stdio_output@@@2@@__crt_stdio_output@@AAE_N_W@Z 10011e5d f i libucrt:output.obj
 0001:00010ef2       ?write_stored_string_tchar@?$output_processor@_WV?$string_output_adapter@_W@__crt_stdio_output@@V?$standard_base@_WV?$string_output_adapter@_W@__crt_stdio_output@@@2@@__crt_stdio_output@@AAE_N_W@Z 10011ef2 f i libucrt:output.obj
 0001:00010f87       ?write_string@?$stream_output_adapter@_W@__crt_stdio_output@@QBEXQB_WHQAHAAV__crt_deferred_errno_cache@@@Z 10011f87 f i libucrt:output.obj
 0001:00010fb2       ?write_string@?$string_output_adapter@D@__crt_stdio_output@@QBEXQBDHQAHAAV__crt_deferred_errno_cache@@@Z 10011fb2 f i libucrt:output.obj
 0001:00011019       ?write_string@?$string_output_adapter@_W@__crt_stdio_output@@QBEXQB_WHQAHAAV__crt_deferred_errno_cache@@@Z 10012019 f i libucrt:output.obj
 0001:0001108c       ?write_string_impl@?$output_adapter_common@_WV?$stream_output_adapter@_W@__crt_stdio_output@@@__crt_stdio_output@@IBEXQB_WHQAHAAV__crt_deferred_errno_cache@@@Z 1001208c f i libucrt:output.obj
 0001:0001112f       ___stdio_common_vfwprintf  1001212f f   libucrt:output.obj
 0001:000111b4       ___stdio_common_vsprintf_s 100121b4 f   libucrt:output.obj
 0001:000111d8       ___stdio_common_vswprintf  100121d8 f   libucrt:output.obj
 0001:000111fc       _localeconv                100121fc f   libucrt:localeconv.obj
 0001:00011226       _free                      10012226 f   libucrt:free.obj
 0001:00011243       _frexp                     10012243 f   libucrt:frexp.obj
 0001:0001199d       ??$ftprintf@PAU_iobuf@@PB_WABQB_WABQB_WABI@?$__crt_char_traits@_W@@SAH$$QAPAU_iobuf@@$$QAPB_WABQB_W2ABI@Z 1001299d f i libucrt:assert.obj
 0001:00011a7c       __vfwprintf_l              10012a7c f i libucrt:assert.obj
 0001:00011aa1       __vswprintf_c_l            10012aa1 f i libucrt:assert.obj
 0001:00011ad0       __wassert                  10012ad0 f   libucrt:assert.obj
 0001:00011b18       _fwprintf                  10012b18 f i libucrt:assert.obj
 0001:00011bb4       _swprintf                  10012bb4 f i libucrt:assert.obj
 0001:00011bd2       _malloc                    10012bd2 f   libucrt:malloc.obj
 0001:00011bdd       __wcsdup                   10012bdd f   libucrt:wcsdup.obj
 0001:00011c40       _strncpy                   10012c40 f   libucrt:strncpy.obj
 0001:00011d64       ??$is_overflow_condition@K@__crt_strtox@@YA_NIK@Z 10012d64 f i libucrt:strtox.obj
 0001:00011d95       ??$make_c_string_character_source@DPAPAD@__crt_strtox@@YA?AV?$c_string_character_source@D@0@QBDQAPAD@Z 10012d95 f i libucrt:strtox.obj
 0001:00011d95       ??$make_c_string_character_source@_WPAPA_W@__crt_strtox@@YA?AV?$c_string_character_source@_W@0@QB_WQAPA_W@Z 10012d95 f i libucrt:strtox.obj
 0001:00011db0       ??$parse_integer@KV?$c_string_character_source@D@__crt_strtox@@@__crt_strtox@@YAKQAU__crt_locale_pointers@@V?$c_string_character_source@D@0@H_N@Z 10012db0 f i libucrt:strtox.obj
 0001:00011fd9       ??$parse_integer@KV?$c_string_character_source@_W@__crt_strtox@@@__crt_strtox@@YAKQAU__crt_locale_pointers@@V?$c_string_character_source@_W@0@H_N@Z 10012fd9 f i libucrt:strtox.obj
 0001:0001261a       ?unget@?$c_string_character_source@D@__crt_strtox@@QAEXD@Z 1001361a f i libucrt:strtox.obj
 0001:00012643       ?unget@?$c_string_character_source@_W@__crt_strtox@@QAEX_W@Z 10013643 f i libucrt:strtox.obj
 0001:00012671       __chvalidchk_l             10013671 f i libucrt:strtox.obj
 0001:00012697       __ischartype_l             10013697 f i libucrt:strtox.obj
 0001:000126ca       _strtol                    100136ca f   libucrt:strtox.obj
 0001:000126f6       _wcstol                    100136f6 f   libucrt:strtox.obj
 0001:00012722       ___acrt_initialize_locks   10013722 f   libucrt:locks.obj
 0001:00012763       ___acrt_lock               10013763 f   libucrt:locks.obj
 0001:0001277a       ___acrt_uninitialize_locks 1001377a f   libucrt:locks.obj
 0001:000127ab       ___acrt_unlock             100137ab f   libucrt:locks.obj
 0001:000127c2       __lock_locales             100137c2 f   libucrt:locks.obj
 0001:000127d0       __unlock_locales           100137d0 f   libucrt:locks.obj
 0001:000127d9       _terminate                 100137d9 f   libucrt:terminate.obj
 0001:00012a6e       _setlocale                 10013a6e f   libucrt:setlocale.obj
 0001:00012aa8       ___pctype_func             10013aa8 f   libucrt:ctype.obj
 0001:00012ace       __isdigit_l                10013ace f i libucrt:_ctype.obj
 0001:00012b06       __islower_l                10013b06 f i libucrt:_ctype.obj
 0001:00012b3e       __isupper_l                10013b3e f i libucrt:_ctype.obj
 0001:00012b76       _isdigit                   10013b76 f i libucrt:_ctype.obj
 0001:00012ba4       _islower                   10013ba4 f i libucrt:_ctype.obj
 0001:00012bd2       _isupper                   10013bd2 f i libucrt:_ctype.obj
 0001:00012c00       ____lc_codepage_func       10013c00 f   libucrt:initctype.obj
 0001:00012c27       ____lc_locale_name_func    10013c27 f   libucrt:initctype.obj
 0001:00012c50       ____mb_cur_max_func        10013c50 f   libucrt:initctype.obj
 0001:00012c77       ___acrt_locale_initialize_ctype 10013c77 f   libucrt:initctype.obj
 0001:000130ab       ___acrt_errno_from_os_error 100140ab f   libucrt:errno.obj
 0001:000130ee       ___acrt_errno_map_os_error 100140ee f   libucrt:errno.obj
 0001:00013111       ___doserrno                10014111 f   libucrt:errno.obj
 0001:00013124       __errno                    10014124 f   libucrt:errno.obj
 0001:00013140       ?divide@__crt_strtox@@YA_KAAUbig_integer@1@ABU21@@Z 10014140 f i libucrt:strtod.obj
 0001:000135d0       __CIpow                    100145d0 f   libucrt:pow_impl.obj
 0001:0001360b       __CIpow_default            1001460b f   libucrt:pow_impl.obj
 0001:00013624       __pow_default              10014624     libucrt:pow_impl.obj
 0001:00013819       ___strncnt                 10014819 f   libucrt:strncnt.obj
 0001:00013835       ?_deallocate@?$__crt_win32_buffer@_WU__crt_win32_buffer_internal_dynamic_resizing@@@@AAEXXZ 10014835 f i libucrt:strftime.obj
 0001:0001384f       ?allocate@?$__crt_win32_buffer@DU__crt_win32_buffer_no_resizing@@@@QAEHI@Z 1001484f f i libucrt:strftime.obj
 0001:00013876       ?allocate@?$__crt_win32_buffer@_WU__crt_win32_buffer_internal_dynamic_resizing@@@@QAEHI@Z 10014876 f i libucrt:strftime.obj
 0001:000138b5       ?allocate@__crt_win32_buffer_internal_dynamic_resizing@@SAHQAPAXIABV__crt_win32_buffer_empty_debug_info@@@Z 100148b5 f i libucrt:strftime.obj
 0001:00013a3a       __tolower_l                10014a3a f   libucrt:tolower_toupper.obj
 0001:00013a54       _tolower                   10014a54 f   libucrt:tolower_toupper.obj
 0001:00013a84       _wcscpy_s                  10014a84 f   libucrt:wcscpy_s.obj
 0001:00013ae8       _strnlen                   10014ae8 f   libucrt:strnlen.obj
 0001:00013c0a       _wcsnlen                   10014c0a f   libucrt:strnlen.obj
 0001:00013dba       ___acrt_initialize_new_handler 10014dba f   libucrt:new_handler.obj
 0001:00013dc9       __callnewh                 10014dc9 f   libucrt:new_handler.obj
 0001:00013e0d       __query_new_handler        10014e0d f   libucrt:new_handler.obj
 0001:00013e5f       __initterm                 10014e5f f   libucrt:initterm.obj
 0001:00013ebb       __initterm_e               10014ebb f   libucrt:initterm.obj
 0001:00013f00       __seh_filter_dll           10014f00 f   libucrt:exception_filter.obj
 0001:00013f20       __seh_filter_exe           10014f20 f   libucrt:exception_filter.obj
 0001:0001430e       ___acrt_initialize_thread_local_exit_callback 1001530e f   libucrt:exit.obj
 0001:0001431d       __cexit                    1001531d f   libucrt:exit.obj
 0001:0001432c       __exit                     1001532c f   libucrt:exit.obj
 0001:00014342       __is_c_termination_complete 10015342 f   libucrt:exit.obj
 0001:000145f9       ___acrt_allocate_buffer_for_argv 100155f9 f   libucrt:argv_parsing.obj
 0001:00014648       __configure_narrow_argv    10015648 f   libucrt:argv_parsing.obj
 0001:000147a7       ??$uninitialize@A6AXAAPAPAD@Z@?$dual_state_global@PAPAD@__crt_state_management@@QAEXA6AXAAPAPAD@Z@Z 100157a7 f i libucrt:environment_initialization.obj
 0001:000147a7       ??$uninitialize@A6AXAAPAPA_W@Z@?$dual_state_global@PAPA_W@__crt_state_management@@QAEXA6AXAAPAPA_W@Z@Z 100157a7 f i libucrt:environment_initialization.obj
 0001:0001481d       ___dcrt_uninitialize_environments_nolock 1001581d f   libucrt:environment_initialization.obj
 0001:00014854       __initialize_narrow_environment 10015854 f   libucrt:environment_initialization.obj
 0001:000148fb       ??$__crt_fast_encode_pointer@P6AHXZ@@YAP6AHXZQ6AHXZ@Z 100158fb f i libucrt:onexit.obj
 0001:000148fb       ??$__crt_fast_encode_pointer@P6GHPA_WKJ@Z@@YAP6GHPA_WKJ@ZQ6GH0KJ@Z@Z 100158fb f i libucrt:winapi_thunks.obj
 0001:00014b7f       __crt_atexit               10015b7f f   libucrt:onexit.obj
 0001:00014b95       __execute_onexit_table     10015b95 f   libucrt:onexit.obj
 0001:00014bc4       __initialize_onexit_table  10015bc4 f   libucrt:onexit.obj
 0001:00014c01       __register_onexit_function 10015c01 f   libucrt:onexit.obj
 0001:00014c5d       ___acrt_uninitialize_command_line 10015c5d f   libucrt:argv_data.obj
 0001:00014d45       ___acrt_initialize         10015d45 f   libucrt:initialization.obj
 0001:00014d57       ___acrt_thread_attach      10015d57 f   libucrt:initialization.obj
 0001:00014d62       ___acrt_thread_detach      10015d62 f   libucrt:initialization.obj
 0001:00014d6a       ___acrt_uninitialize       10015d6a f   libucrt:initialization.obj
 0001:00014d9a       ___acrt_uninitialize_critical 10015d9a f   libucrt:initialization.obj
 0001:00014dac       _strcpy_s                  10015dac f   libucrt:strcpy_s.obj
 0001:00014e06       _wcsncmp                   10015e06 f   libucrt:wcsncmp.obj
 0001:00014e40       __wtol                     10015e40 f   libucrt:atox.obj
 0001:00014e70       _strncmp                   10015e70 f   libucrt:strncmp.obj
 0001:00014fac       ___acrt_get_sigabrt_handler 10015fac f   libucrt:signal.obj
 0001:00014fd5       ___acrt_initialize_signal_handlers 10015fd5 f   libucrt:signal.obj
 0001:00014ff3       ___fpecode                 10015ff3 f   libucrt:signal.obj
 0001:00014ffd       _raise                     10015ffd f   libucrt:signal.obj
 0001:000151ff       __calloc_base              100161ff f   libucrt:calloc_base.obj
 0001:0001525c       __isleadbyte_l             1001625c f i libucrt:_wctype.obj
 0001:00015295       ___acrt_MultiByteToWideChar 10016295 f   libucrt:multibytetowidechar.obj
 0001:0001562b       ___acrt_freeptd            1001662b f   libucrt:per_thread_data.obj
 0001:00015657       ___acrt_getptd             10016657 f   libucrt:per_thread_data.obj
 0001:0001570e       ___acrt_getptd_head        1001670e f   libucrt:per_thread_data.obj
 0001:000157a8       ___acrt_getptd_noexit      100167a8 f   libucrt:per_thread_data.obj
 0001:00015855       ___acrt_initialize_ptd     10016855 f   libucrt:per_thread_data.obj
 0001:00015881       ___acrt_uninitialize_ptd   10016881 f   libucrt:per_thread_data.obj
 0001:0001589b       ___acrt_update_locale_info 1001689b f   libucrt:locale_update.obj
 0001:000158c8       ___acrt_update_multibyte_info 100168c8 f   libucrt:locale_update.obj
 0001:00015921       ?__mbrtowc_utf8@__crt_mbstring@@YAIPA_WPBDIPAU_Mbstatet@@@Z 10016921 f   libucrt:mbrtowc.obj
 0001:00015963       ?__mbsrtowcs_utf8@__crt_mbstring@@YAIPA_WPAPBDIPAU_Mbstatet@@@Z 10016963 f   libucrt:mbrtowc.obj
 0001:00015cac       ___acrt_copy_locale_name   10016cac f   libucrt:wsetlocale.obj
 0001:00015d12       ___acrt_set_locale_changed 10016d12 f   libucrt:wsetlocale.obj
 0001:00015d1d       ___acrt_uninitialize_locale 10016d1d f   libucrt:wsetlocale.obj
 0001:00015d46       ___lc_lctowcs              10016d46 f   libucrt:wsetlocale.obj
 0001:00015db6       ___lc_wcstolc              10016db6 f   libucrt:wsetlocale.obj
 0001:00015f32       __expandlocale             10016f32 f   libucrt:wsetlocale.obj
 0001:0001630f       __wcscats                  1001730f f   libucrt:wsetlocale.obj
 0001:00016350       __wsetlocale               10017350 f   libucrt:wsetlocale.obj
 0001:00016c28       __free_base                10017c28 f   libucrt:free_base.obj
 0001:00016c62       __malloc_base              10017c62 f   libucrt:malloc_base.obj
 0001:00016cb0       __mbtowc_l                 10017cb0 f   libucrt:mbtowc.obj
 0001:00016df4       _mbtowc                    10017df4 f   libucrt:mbtowc.obj
 0001:00016e0e       __wctomb_s_l               10017e0e f   libucrt:wctomb.obj
 0001:00016f31       _wctomb_s                  10017f31 f   libucrt:wctomb.obj
 0001:00016f4e       ?__acrt_fp_classify@@YA?AW4__acrt_fp_class@@ABN@Z 10017f4e f i libucrt:cvt.obj
 0001:00017804       ___acrt_fp_format          10018804 f   libucrt:cvt.obj
 0001:00017971       __fputwc_nolock            10018971 f   libucrt:fputwc.obj
 0001:00017a9b       __fileno                   10018a9b f   libucrt:fileno.obj
 0001:00017ac1       ___acrt_initialize_stdio   10018ac1 f   libucrt:_file.obj
 0001:00017b89       ___acrt_iob_func           10018b89 f   libucrt:_file.obj
 0001:00017b99       ___acrt_uninitialize_stdio 10018b99 f   libucrt:_file.obj
 0001:00017be5       __lock_file                10018be5 f   libucrt:_file.obj
 0001:00017bf9       __unlock_file              10018bf9 f   libucrt:_file.obj
 0001:00017c0d       __fputc_nolock             10018c0d f   libucrt:fputc.obj
 0001:00017c36       __get_printf_count_output  10018c36 f   libucrt:printf_count_output.obj
 0001:00017c4b       ___acrt_stdio_begin_temporary_buffering_nolock 10018c4b f   libucrt:_sftbuf.obj
 0001:00017d00       ___acrt_stdio_end_temporary_buffering_nolock 10018d00 f   libucrt:_sftbuf.obj
 0001:00017ea5       ___acrt_initialize_lowio   10018ea5 f   libucrt:ioinit.obj
 0001:00017efb       ___acrt_uninitialize_lowio 10018efb f   libucrt:ioinit.obj
 0001:00017f27       __dsign                    10018f27 f   libucrt:nan.obj
 0001:00017f37       __errcode                  10018f37 f   libucrt:fpexcept.obj
 0001:00017f6b       __except1                  10018f6b f   libucrt:fpexcept.obj
 0001:00018039       __handle_exc               10019039 f   libucrt:fpexcept.obj
 0001:00018226       __raise_exc                10019226 f   libucrt:fpexcept.obj
 0001:00018249       __raise_exc_ex             10019249 f   libucrt:fpexcept.obj
 0001:0001853f       __set_errno_from_matherr   1001953f f   libucrt:fpexcept.obj
 0001:0001856e       __umatherr                 1001956e f   libucrt:fpexcept.obj
 0001:00018610       __decomp                   10019610 f   libucrt:util.obj
 0001:000186ee       __set_exp                  100196ee f   libucrt:util.obj
 0001:0001871d       __sptype                   1001971d f   libucrt:util.obj
 0001:0001877b       __clrfp                    1001977b f   libucrt:fpctrl.obj
 0001:0001878e       __ctrlfp                   1001978e f   libucrt:fpctrl.obj
 0001:000187ba       __set_statfp               100197ba f   libucrt:fpctrl.obj
 0001:00018815       __statfp                   10019815 f   libucrt:fpctrl.obj
 0001:00018827       __query_app_type           10019827 f   libucrt:report_runtime_error.obj
 0001:0001894b       __itow_s                   1001994b f   libucrt:xtoa.obj
 0001:00018980       __set_error_mode           10019980 f   libucrt:set_error_mode.obj
 0001:000189bf       _wcscat_s                  100199bf f   libucrt:wcscat_s.obj
 0001:00018b1d       _wcsncat_s                 10019b1d f   libucrt:wcsncat_s.obj
 0001:00018b28       ___acrt_GetModuleFileNameA 10019b28 f   libucrt:getmodulefilenamea.obj
 0001:00018c0c       ___acrt_show_wide_message_box 10019c0c f   libucrt:crtmbox.obj
 0001:00018e34       ___acrt_stdio_flush_nolock 10019e34 f   libucrt:fflush.obj
 0001:00018e97       __fflush_nolock            10019e97 f   libucrt:fflush.obj
 0001:00018ede       __flushall                 10019ede f   libucrt:fflush.obj
 0001:00018ee7       _fflush                    10019ee7 f   libucrt:fflush.obj
 0001:00019059       _setvbuf                   1001a059 f   libucrt:setvbuf.obj
 0001:000190dd       _iswctype                  1001a0dd f   libucrt:iswctype.obj
 0001:00019148       __isctype_l                1001a148 f   libucrt:isctype.obj
 0001:0001959d       ___acrt_AppPolicyGetProcessTerminationMethodInternal@4 1001a59d f   libucrt:winapi_thunks.obj
 0001:000195f4       ___acrt_AppPolicyGetShowDeveloperDiagnosticInternal@4 1001a5f4 f   libucrt:winapi_thunks.obj
 0001:0001964b       ___acrt_AppPolicyGetWindowingModelInternal@4 1001a64b f   libucrt:winapi_thunks.obj
 0001:000196a2       ___acrt_EnumSystemLocalesEx@16 1001a6a2 f   libucrt:winapi_thunks.obj
 0001:0001970c       ___acrt_FlsAlloc@4         1001a70c f   libucrt:winapi_thunks.obj
 0001:00019762       ___acrt_FlsFree@4          1001a762 f   libucrt:winapi_thunks.obj
 0001:000197b8       ___acrt_FlsGetValue@4      1001a7b8 f   libucrt:winapi_thunks.obj
 0001:0001980e       ___acrt_FlsSetValue@8      1001a80e f   libucrt:winapi_thunks.obj
 0001:00019867       ___acrt_GetLocaleInfoEx@16 1001a867 f   libucrt:winapi_thunks.obj
 0001:000198bd       ___acrt_GetUserDefaultLocaleName@8 1001a8bd f   libucrt:winapi_thunks.obj
 0001:00019910       ___acrt_InitializeCriticalSectionEx@12 1001a910 f   libucrt:winapi_thunks.obj
 0001:00019972       ___acrt_IsValidLocaleName@4 1001a972 f   libucrt:winapi_thunks.obj
 0001:000199c1       ___acrt_LCIDToLocaleName@16 1001a9c1 f   libucrt:winapi_thunks.obj
 0001:00019a17       ___acrt_LCMapStringEx@36   1001aa17 f   libucrt:winapi_thunks.obj
 0001:00019a8b       ___acrt_LocaleNameToLCID@8 1001aa8b f   libucrt:winapi_thunks.obj
 0001:00019ad3       ___acrt_MessageBoxW@16     1001aad3 f   libucrt:winapi_thunks.obj
 0001:00019b1c       ___acrt_can_show_message_box 1001ab1c f   libucrt:winapi_thunks.obj
 0001:00019b43       ___acrt_can_use_vista_locale_apis 1001ab43 f   libucrt:winapi_thunks.obj
 0001:00019b4e       ___acrt_eagerly_load_locale_apis 1001ab4e f   libucrt:winapi_thunks.obj
 0001:00019b85       ___acrt_get_parent_window  1001ab85 f   libucrt:winapi_thunks.obj
 0001:00019c04       ___acrt_initialize_winapi_thunks 1001ac04 f   libucrt:winapi_thunks.obj
 0001:00019c40       ___acrt_is_interactive     1001ac40 f   libucrt:winapi_thunks.obj
 0001:00019ce6       ___acrt_uninitialize_winapi_thunks 1001ace6 f   libucrt:winapi_thunks.obj
 0001:00019fc5       __wcstombs_l               1001afc5 f   libucrt:wcstombs.obj
 0001:00019fd0       __wcstombs_s_l             1001afd0 f   libucrt:wcstombs.obj
 0001:0001a17e       ___acrt_GetLocaleInfoA     1001b17e f   libucrt:getlocaleinfoa.obj
 0001:0001a330       ___acrt_GetStringTypeA     1001b330 f   libucrt:getstringtypea.obj
 0001:0001a621       ___acrt_LCMapStringA       1001b621 f   libucrt:lcmapstringa.obj
 0001:0001a66c       __realloc_base             1001b66c f   libucrt:realloc_base.obj
 0001:0001a6d5       __fpclass                  1001b6d5 f   libucrt:ieeemisc.obj
 0001:0001a779       ___acrt_initialize_sse2    1001b779 f   libucrt:mathfcns.obj
 0001:0001a790       __CIpow_pentium4           1001b790 f   libucrt:pow_pentium4.obj
 0001:0001a7a9       __pow_pentium4             1001b7a9     libucrt:pow_pentium4.obj
 0001:0001b2d0       __fFEXP                    1001c2d0 f   libucrt:87tran.obj
 0001:0001b327       __rtinfpopse               1001c327     libucrt:87tran.obj
 0001:0001b329       __rtinfnpopse              1001c329     libucrt:87tran.obj
 0001:0001b339       __fFLN                     1001c339     libucrt:87tran.obj
 0001:0001b3ee       __rtinfpop                 1001c3ee     libucrt:87tran.obj
 0001:0001b3f0       __rtinfnpop                1001c3f0     libucrt:87tran.obj
 0001:0001b400       __rtforexpinf              1001c400 f   libucrt:87tran.obj
 0001:0001b40d       __ffexpm1                  1001c40d     libucrt:87tran.obj
 0001:0001b4c0       __trandisp1                1001c4c0 f   libucrt:87disp.obj
 0001:0001b535       __trandisp2                1001c535 f   libucrt:87disp.obj
 0001:0001b5cf       __rttospopde               1001c5cf     libucrt:87disp.obj
 0001:0001b5d4       __rttospop                 1001c5d4     libucrt:87disp.obj
 0001:0001b5e0       __rtnospop                 1001c5e0 f   libucrt:87disp.obj
 0001:0001b5f0       __rttosnpop                1001c5f0 f   libucrt:87disp.obj
 0001:0001b5f1       __rtnospopde               1001c5f1     libucrt:87disp.obj
 0001:0001b5f8       __rtzeropop                1001c5f8     libucrt:87disp.obj
 0001:0001b5fa       __rtzeronpop               1001c5fa     libucrt:87disp.obj
 0001:0001b600       __rtzerospop               1001c600 f   libucrt:87disp.obj
 0001:0001b60d       __rtonepop                 1001c60d     libucrt:87disp.obj
 0001:0001b610       __rtonenpop                1001c610 f   libucrt:87disp.obj
 0001:0001b620       __tosnan1                  1001c620 f   libucrt:87disp.obj
 0001:0001b650       __nosnan2                  1001c650 f   libucrt:87disp.obj
 0001:0001b660       __tosnan2                  1001c660 f   libucrt:87disp.obj
 0001:0001b690       __nan2                     1001c690 f   libucrt:87disp.obj
 0001:0001b6d0       __rtindfpop                1001c6d0 f   libucrt:87disp.obj
 0001:0001b6d2       __rtindfnpop               1001c6d2     libucrt:87disp.obj
 0001:0001b6e3       __rttosnpopde              1001c6e3     libucrt:87disp.obj
 0001:0001b6f0       __rtatan2inf               1001c6f0 f   libucrt:87disp.obj
 0001:0001b70d       __rtchsifneg               1001c70d     libucrt:87disp.obj
 0001:0001b720       __startTwoArgErrorHandling 1001c720 f   libucrt:genexcep.obj
 0001:0001b737       __startOneArgErrorHandling 1001c737 f   libucrt:genexcep.obj
 0001:0001b780       __twoToTOS                 1001c780 f   libucrt:common.obj
 0001:0001b795       __load_CW                  1001c795 f   libucrt:common.obj
 0001:0001b7ac       __convertTOStoQNaN         1001c7ac f   libucrt:common.obj
 0001:0001b7c5       __fload_withFB             1001c7c5 f   libucrt:common.obj
 0001:0001b808       __checkTOS_withFB          1001c808 f   libucrt:common.obj
 0001:0001b81e       __fast_exit                1001c81e f   libucrt:common.obj
 0001:0001b82b       __math_exit                1001c82b f   libucrt:common.obj
 0001:0001b855       __check_overflow_exit      1001c855 f   libucrt:common.obj
 0001:0001b869       __check_range_exit         1001c869 f   libucrt:common.obj
 0001:0001b90c       __d_inttype                1001c90c f   libucrt:powhlp.obj
 0001:0001b976       __powhlp                   1001c976 f   libucrt:powhlp.obj
 0001:0001baa1       ___acrt_WideCharToMultiByte 1001caa1 f   libucrt:widechartomultibyte.obj
 0001:0001bb4e       __wcsicmp                  1001cb4e f   libucrt:wcsicmp.obj
 0001:0001bbdc       __wcsicmp_l                1001cbdc f   libucrt:wcsicmp.obj
 0001:0001bcb9       ___acrt_initialize_timeset 1001ccb9 f   libucrt:timeset.obj
 0001:0001bce4       ___acrt_get_developer_information_policy 1001cce4 f   libucrt:win_policies.obj
 0001:0001bd29       ___acrt_get_process_end_policy 1001cd29 f   libucrt:win_policies.obj
 0001:0001bd5c       ___acrt_get_windowing_model_policy 1001cd5c f   libucrt:win_policies.obj
 0001:0001c27c       ___acrt_expand_narrow_argv_wildcards 1001d27c f   libucrt:argv_wildcards.obj
 0001:0001c7cc       ___acrt_initialize_multibyte 1001d7cc f   libucrt:mbctype.obj
 0001:0001c814       ___acrt_update_thread_multibyte_data 1001d814 f   libucrt:mbctype.obj
 0001:0001c827       __setmbcp_nolock           1001d827 f   libucrt:mbctype.obj
 0001:0001ca7b       __ismbblead                1001da7b f   libucrt:ismbbyte.obj
 0001:0001ca93       ___acrt_initialize_command_line 1001da93 f   libucrt:argv_data.obj
 0001:0001cae3       ___dcrt_get_narrow_environment_from_os 1001dae3 f   libucrt:get_environment_from_os.obj
 0001:0001cb69       __recalloc                 1001db69 f   libucrt:recalloc.obj
 0001:0001cb74       __recalloc_base            1001db74 f   libucrt:recalloc.obj
 0001:0001cbe1       ___acrt_initialize_heap    1001dbe1 f   libucrt:heap_handle.obj
 0001:0001cbf2       ___acrt_uninitialize_heap  1001dbf2 f   libucrt:heap_handle.obj
 0001:0001cbfc       ___acrt_execute_initializers 1001dbfc f   libucrt:shared_initialization.obj
 0001:0001cc7f       ___acrt_execute_uninitializers 1001dc7f f   libucrt:shared_initialization.obj
 0001:0001ccc7       ___acrt_has_user_matherr   1001dcc7 f   libucrt:matherr.obj
 0001:0001ccdf       ___acrt_initialize_user_matherr 1001dcdf f   libucrt:matherr.obj
 0001:0001ccee       ___acrt_invoke_user_matherr 1001dcee f   libucrt:matherr.obj
 0001:0001cd37       __query_new_mode           1001dd37 f   libucrt:new_mode.obj
 0001:0001cd3d       ___acrt_add_locale_ref     1001dd3d f   libucrt:locale_refcounting.obj
 0001:0001cdba       ___acrt_free_locale        1001ddba f   libucrt:locale_refcounting.obj
 0001:0001cf04       ___acrt_locale_add_lc_time_reference 1001df04 f   libucrt:locale_refcounting.obj
 0001:0001cf2d       ___acrt_locale_free_lc_time_if_unreferenced 1001df2d f   libucrt:locale_refcounting.obj
 0001:0001cf5d       ___acrt_locale_release_lc_time_reference 1001df5d f   libucrt:locale_refcounting.obj
 0001:0001cf86       ___acrt_release_locale_ref 1001df86 f   libucrt:locale_refcounting.obj
 0001:0001d007       ___acrt_update_thread_locale_data 1001e007 f   libucrt:locale_refcounting.obj
 0001:0001d07e       __updatetlocinfoEx_nolock  1001e07e f   libucrt:locale_refcounting.obj
 0001:0001d0ce       ?__mbrtoc32_utf8@__crt_mbstring@@YAIPA_UPBDIPAU_Mbstatet@@@Z 1001e0ce f   libucrt:mbrtoc32.obj
 0001:0001d282       ?return_illegal_sequence@__crt_mbstring@@YAIPAU_Mbstatet@@@Z 1001e282 f i libucrt:mbrtoc32.obj
 0001:0001d2a1       ___acrt_locale_free_monetary 1001e2a1 f   libucrt:initmon.obj
 0001:0001d39f       ___acrt_locale_initialize_monetary 1001e39f f   libucrt:initmon.obj
 0001:0001d758       ___acrt_locale_free_numeric 1001e758 f   libucrt:initnum.obj
 0001:0001d7c1       ___acrt_locale_initialize_numeric 1001e7c1 f   libucrt:initnum.obj
 0001:0001dc88       ___acrt_locale_free_time   1001ec88 f   libucrt:inittime.obj
 0001:0001dd6c       ___acrt_locale_initialize_time 1001ed6c f   libucrt:inittime.obj
 0001:0001deb3       _wcsncpy_s                 1001eeb3 f   libucrt:wcsncpy_s.obj
 0001:0001debe       _wcscspn                   1001eebe f   libucrt:wcscspn.obj
 0001:0001df19       _wcspbrk                   1001ef19 f   libucrt:wcspbrk.obj
 0001:0001e67d       ___acrt_get_qualified_locale 1001f67d f   libucrt:get_qualified_locale.obj
 0001:0001efef       ___acrt_get_qualified_locale_downlevel 1001ffef f   libucrt:getqloc_downlevel.obj
 0001:0001f1e6       ___acrt_fp_strflt_to_string 100201e6 f   libucrt:_fptostr.obj
 0001:0001f2a6       ___acrt_fltout             100202a6 f   libucrt:cfout.obj
 0001:000209d3       ___acrt_stdio_flush_and_write_narrow_nolock 100219d3 f   libucrt:_flsbuf.obj
 0001:000209de       ___acrt_stdio_flush_and_write_wide_nolock 100219de f   libucrt:_flsbuf.obj
 0001:000209e9       __fcloseall                100219e9 f   libucrt:closeall.obj
 0001:00020a89       ___acrt_stdio_free_buffer_nolock 10021a89 f   libucrt:_freebuf.obj
 0001:00020ac7       __isatty                   10021ac7 f   libucrt:isatty.obj
 0001:00020b1d       ___acrt_lowio_create_handle_array 10021b1d f   libucrt:osfinfo.obj
 0001:00020b97       ___acrt_lowio_destroy_handle_array 10021b97 f   libucrt:osfinfo.obj
 0001:00020bcc       ___acrt_lowio_ensure_fh_exists 10021bcc f   libucrt:osfinfo.obj
 0001:00020c60       ___acrt_lowio_lock_fh      10021c60 f   libucrt:osfinfo.obj
 0001:00020c83       ___acrt_lowio_unlock_fh    10021c83 f   libucrt:osfinfo.obj
 0001:00020ca6       __free_osfhnd              10021ca6 f   libucrt:osfinfo.obj
 0001:00020d37       __get_osfhandle            10021d37 f   libucrt:osfinfo.obj
 0001:00020e39       __commit                   10021e39 f   libucrt:commit.obj
 0001:00021463       __write                    10022463 f   libucrt:write.obj
 0001:0002154b       __write_nolock             1002254b f   libucrt:write.obj
 0001:0002175d       ___acrt_GetStringTypeW     1002275d f   libucrt:getstringtypew.obj
 0001:0002182a       ___acrt_DownlevelLCIDToLocaleName 1002282a f   libucrt:lcidtoname_downlevel.obj
 0001:000218d4       ___acrt_DownlevelLocaleNameToLCID 100228d4 f   libucrt:lcidtoname_downlevel.obj
 0001:00021900       ?__wcsrtombs_utf8@__crt_mbstring@@YAIPADPAPB_WIPAU_Mbstatet@@@Z 10022900 f   libucrt:wcrtomb.obj
 0001:00021ab0       _strncpy_s                 10022ab0 f   libucrt:strncpy_s.obj
 0001:00021e3b       ___acrt_fenv_get_control   10022e3b f   libucrt:_fenvutils.obj
 0001:00021ebd       ___acrt_fenv_get_status    10022ebd f   libucrt:_fenvutils.obj
 0001:00021f7f       ___acrt_fenv_set_control   10022f7f f   libucrt:_fenvutils.obj
 0001:00021fe9       ___acrt_fenv_set_status    10022fe9 f   libucrt:_fenvutils.obj
 0001:000220e2       ___libm_error_support      100230e2 f   libucrt:libm_error.obj
 0001:000222fa       __87except                 100232fa f   libucrt:87except.obj
 0001:00022404       __frnd                     10023404 f   libucrt:frnd.obj
 0001:0002241a       __towlower_l               1002341a f   libucrt:towlower.obj
 0001:00022530       _qsort                     10023530 f   libucrt:qsort.obj
 0001:00022980       _strpbrk                   10023980 f   libucrt:strpbrk.obj
 0001:000229c0       ??$__acrt_convert_wcs_mbs@D_W$$A6AIPA_WPBDIPAU__crt_locale_pointers@@@ZU__crt_win32_buffer_internal_dynamic_resizing@@@@YAHQBDAAV?$__crt_win32_buffer@_WU__crt_win32_buffer_internal_dynamic_resizing@@@@A6AIPA_WPBDIPAU__crt_locale_pointers@@@Z4@Z 100239c0 f i libucrt:findfirstfileexa.obj
 0001:00022a61       ??$__acrt_mbs_to_wcs@U__crt_win32_buffer_internal_dynamic_resizing@@@@YAHQBDAAV?$__crt_win32_buffer@_WU__crt_win32_buffer_internal_dynamic_resizing@@@@PAU__crt_locale_pointers@@@Z 10023a61 f i libucrt:findfirstfileexa.obj
 0001:00022a7e       ___acrt_FindFirstFileExA   10023a7e f   libucrt:findfirstfileexa.obj
 0001:00022ae4       ??$__acrt_convert_wcs_mbs@_WD$$A6AIPADPB_WIPAU__crt_locale_pointers@@@ZU__crt_win32_buffer_no_resizing@@@@YAHQB_WAAV?$__crt_win32_buffer@DU__crt_win32_buffer_no_resizing@@@@A6AIPADPB_WIPAU__crt_locale_pointers@@@Z4@Z 10023ae4 f i libucrt:findnextfilea.obj
 0001:00022b86       ?set_to_nullptr@?$__crt_win32_buffer@DU__crt_win32_buffer_no_resizing@@@@QAEXXZ 10023b86 f i libucrt:findnextfilea.obj
 0001:00022b9a       ___acrt_FindNextFileA      10023b9a f   libucrt:findnextfilea.obj
 0001:00022cdb       __mbsdec                   10023cdb f   libucrt:mbsdec.obj
 0001:00022cf2       __mbsdec_l                 10023cf2 f   libucrt:mbsdec.obj
 0001:00022d90       __msize                    10023d90 f   libucrt:msize.obj
 0001:00022d9b       __msize_base               10023d9b f   libucrt:msize.obj
 0001:00022dce       __wcsnicmp                 10023dce f   libucrt:wcsnicmp.obj
 0001:00022e7f       __wcsnicmp_l               10023e7f f   libucrt:wcsnicmp.obj
 0001:00022f7c       _fegetenv                  10023f7c f   libucrt:fegetenv.obj
 0001:00022f99       _fesetenv                  10023f99 f   libucrt:fesetenv.obj
 0001:00022fe6       _feholdexcept              10023fe6 f   libucrt:feholdexcept.obj
 0001:00023040       __CIlog10                  10024040 f   libucrt:log10_impl.obj
 0001:0002307b       __CIlog10_default          1002407b f   libucrt:log10_impl.obj
 0001:0002308f       __log10_default            1002408f     libucrt:log10_impl.obj
 0001:00023150       _ceil                      10024150 f   libucrt:ceil_pentium4.obj
 0001:00023190       __ceil_pentium4            10024190 f   libucrt:ceil_pentium4.obj
 0001:000233ed       __lseeki64                 100243ed f   libucrt:lseek.obj
 0001:00023408       __lseeki64_nolock          10024408 f   libucrt:lseek.obj
 0001:00023423       ___acrt_stdio_allocate_buffer_nolock 10024423 f   libucrt:_getbuf.obj
 0001:0002347c       __fclose_nolock            1002447c f   libucrt:fclose.obj
 0001:000234f2       _fclose                    100244f2 f   libucrt:fclose.obj
 0001:0002356b       __putwch_nolock            1002456b f   libucrt:putwch.obj
 0001:0002359f       ?__c16rtomb_utf8@__crt_mbstring@@YAIPAD_SPAU_Mbstatet@@@Z 1002459f f   libucrt:c16rtomb.obj
 0001:0002363d       ___acrt_LCMapStringW       1002463d f   libucrt:lcmapstringw.obj
 0001:0002367b       __clearfp                  1002467b f   libucrt:ieee87.obj
 0001:00023760       __CIlog10_pentium4         10024760 f   libucrt:log10_pentium4.obj
 0001:00023778       __log10_pentium4           10024778     libucrt:log10_pentium4.obj
 0001:000239f0       __ceil_default             100249f0 f   libucrt:ceil.obj
 0001:00023b2b       __close                    10024b2b f   libucrt:close.obj
 0001:00023bba       __close_nolock             10024bba f   libucrt:close.obj
 0001:00023c56       ?__acrt_stdio_free_stream@@YAXV__crt_stdio_stream@@@Z 10024c56 f   libucrt:stream.obj
 0001:00023cb0       ___dcrt_lowio_ensure_console_output_initialized 10024cb0 f   libucrt:initcon.obj
 0001:00023ccf       ___dcrt_terminate_console_output 10024ccf f   libucrt:initcon.obj
 0001:00023ce6       ___dcrt_write_console      10024ce6 f   libucrt:initcon.obj
 0001:00023d3b       ?__c32rtomb_utf8@__crt_mbstring@@YAIPAD_UPAU_Mbstatet@@@Z 10024d3b f   libucrt:c32rtomb.obj
 0001:00023dea       _c32rtomb                  10024dea f   libucrt:c32rtomb.obj
 0001:00023e00       ___ascii_strnicmp          10024e00 f   libucrt:_strnicm.obj
 0001:00023e61       _IsProcessorFeaturePresent@4 10024e61 f   kernel32:KERNEL32.dll
 0001:00023e70       __FindPESection            10024e70 f   LIBCMT:pesect.obj
 0001:00023ec0       __IsNonwritableInCurrentImage 10024ec0 f   LIBCMT:pesect.obj
 0001:00023f80       __ValidateImageBase        10024f80 f   LIBCMT:pesect.obj
 0001:00023fc0       __aulldvrm                 10024fc0 f   LIBCMT:ulldvrm.obj
 0001:00024060       __SEH_prolog4_GS           10025060 f   LIBCMT:sehprolg4gs.obj
 0001:000240a9       __SEH_epilog4_GS           100250a9 f   LIBCMT:sehprolg4gs.obj
 0001:000240c0       __allshl                   100250c0 f   LIBCMT:llshl.obj
 0001:000240e0       __aullshr                  100250e0 f   LIBCMT:ullshr.obj
 0001:00024100       __alldvrm                  10025100 f   LIBCMT:lldvrm.obj
 0001:000241e0       __ftol2_sse                100251e0 f   LIBCMT:ftol2.obj
 0001:000241e9       __ftol2_pentium4           100251e9 f   LIBCMT:ftol2.obj
 0001:000241fc       __ftol2_sse_excpt          100251fc f   LIBCMT:ftol2.obj
 0001:00024220       __ftol2                    10025220 f   LIBCMT:ftol2.obj
 0001:000242a0       _strrchr                   100252a0 f   libvcruntime:strrchr.obj
 0001:000243d7       _wcschr                    100253d7 f   libvcruntime:wcschr.obj
 0002:00000000       __imp__SetFilePointerEx@20 10026000     kernel32:KERNEL32.dll
 0002:00000004       __imp__HeapSize@12         10026004     kernel32:KERNEL32.dll
 0002:00000008       __imp__GetConsoleMode@8    10026008     kernel32:KERNEL32.dll
 0002:0000000c       __imp__GetConsoleCP@0      1002600c     kernel32:KERNEL32.dll
 0002:00000010       __imp__FlushFileBuffers@4  10026010     kernel32:KERNEL32.dll
 0002:00000014       __imp__SetStdHandle@8      10026014     kernel32:KERNEL32.dll
 0002:00000018       __imp__GetProcessHeap@0    10026018     kernel32:KERNEL32.dll
 0002:0000001c       __imp__FreeEnvironmentStringsW@4 1002601c     kernel32:KERNEL32.dll
 0002:00000020       __imp__GetEnvironmentStringsW@0 10026020     kernel32:KERNEL32.dll
 0002:00000024       __imp__GetCommandLineW@0   10026024     kernel32:KERNEL32.dll
 0002:00000028       __imp__GetCommandLineA@0   10026028     kernel32:KERNEL32.dll
 0002:0000002c       __imp__GetOEMCP@0          1002602c     kernel32:KERNEL32.dll
 0002:00000030       __imp__GetACP@0            10026030     kernel32:KERNEL32.dll
 0002:00000034       __imp__IsValidCodePage@4   10026034     kernel32:KERNEL32.dll
 0002:00000038       __imp__FindNextFileW@8     10026038     kernel32:KERNEL32.dll
 0002:0000003c       __imp__FindFirstFileExW@24 1002603c     kernel32:KERNEL32.dll
 0002:00000040       __imp__FindClose@4         10026040     kernel32:KERNEL32.dll
 0002:00000044       __imp__HeapReAlloc@16      10026044     kernel32:KERNEL32.dll
 0002:00000048       __imp__EnumSystemLocalesW@8 10026048     kernel32:KERNEL32.dll
 0002:0000004c       __imp__GetUserDefaultLCID@0 1002604c     kernel32:KERNEL32.dll
 0002:00000050       __imp__IsValidLocale@8     10026050     kernel32:KERNEL32.dll
 0002:00000054       __imp__OutputDebugStringW@4 10026054     kernel32:KERNEL32.dll
 0002:00000058       __imp__HeapFree@12         10026058     kernel32:KERNEL32.dll
 0002:0000005c       __imp__HeapAlloc@12        1002605c     kernel32:KERNEL32.dll
 0002:00000060       __imp__ExitProcess@4       10026060     kernel32:KERNEL32.dll
 0002:00000064       __imp__WriteConsoleW@20    10026064     kernel32:KERNEL32.dll
 0002:00000068       __imp__GetModuleHandleExW@12 10026068     kernel32:KERNEL32.dll
 0002:0000006c       __imp__GetModuleFileNameW@12 1002606c     kernel32:KERNEL32.dll
 0002:00000070       __imp__GetFileType@4       10026070     kernel32:KERNEL32.dll
 0002:00000074       __imp__GetStdHandle@4      10026074     kernel32:KERNEL32.dll
 0002:00000078       __imp__LoadLibraryExW@12   10026078     kernel32:KERNEL32.dll
 0002:0000007c       __imp__InterlockedFlushSList@4 1002607c     kernel32:KERNEL32.dll
 0002:00000080       __imp__RtlUnwind@16        10026080     kernel32:KERNEL32.dll
 0002:00000084       __imp__RaiseException@16   10026084     kernel32:KERNEL32.dll
 0002:00000088       __imp__GetStartupInfoW@4   10026088     kernel32:KERNEL32.dll
 0002:0000008c       __imp__IsDebuggerPresent@0 1002608c     kernel32:KERNEL32.dll
 0002:00000090       __imp__InitializeSListHead@4 10026090     kernel32:KERNEL32.dll
 0002:00000094       __imp__GetCurrentThreadId@0 10026094     kernel32:KERNEL32.dll
 0002:00000098       __imp__GetCurrentProcessId@0 10026098     kernel32:KERNEL32.dll
 0002:0000009c       __imp__QueryPerformanceCounter@4 1002609c     kernel32:KERNEL32.dll
 0002:000000a0       __imp__IsProcessorFeaturePresent@4 100260a0     kernel32:KERNEL32.dll
 0002:000000a4       __imp__TerminateProcess@8  100260a4     kernel32:KERNEL32.dll
 0002:000000a8       __imp__GetCurrentProcess@0 100260a8     kernel32:KERNEL32.dll
 0002:000000ac       __imp__SetUnhandledExceptionFilter@4 100260ac     kernel32:KERNEL32.dll
 0002:000000b0       __imp__UnhandledExceptionFilter@4 100260b0     kernel32:KERNEL32.dll
 0002:000000b4       __imp__GetCPInfo@8         100260b4     kernel32:KERNEL32.dll
 0002:000000b8       __imp__GetStringTypeW@16   100260b8     kernel32:KERNEL32.dll
 0002:000000bc       __imp__GetLocaleInfoW@16   100260bc     kernel32:KERNEL32.dll
 0002:000000c0       __imp__LCMapStringW@24     100260c0     kernel32:KERNEL32.dll
 0002:000000c4       __imp__MultiByteToWideChar@24 100260c4     kernel32:KERNEL32.dll
 0002:000000c8       __imp__DecodePointer@4     100260c8     kernel32:KERNEL32.dll
 0002:000000cc       __imp__EncodePointer@4     100260cc     kernel32:KERNEL32.dll
 0002:000000d0       __imp__GetModuleHandleW@4  100260d0     kernel32:KERNEL32.dll
 0002:000000d4       __imp__GetSystemTimeAsFileTime@4 100260d4     kernel32:KERNEL32.dll
 0002:000000d8       __imp__TlsFree@4           100260d8     kernel32:KERNEL32.dll
 0002:000000dc       __imp__TlsSetValue@8       100260dc     kernel32:KERNEL32.dll
 0002:000000e0       __imp__TlsGetValue@4       100260e0     kernel32:KERNEL32.dll
 0002:000000e4       __imp__TlsAlloc@0          100260e4     kernel32:KERNEL32.dll
 0002:000000e8       __imp__SwitchToThread@0    100260e8     kernel32:KERNEL32.dll
 0002:000000ec       __imp__InitializeCriticalSectionAndSpinCount@8 100260ec     kernel32:KERNEL32.dll
 0002:000000f0       __imp__SetLastError@4      100260f0     kernel32:KERNEL32.dll
 0002:000000f4       __imp__DeleteCriticalSection@4 100260f4     kernel32:KERNEL32.dll
 0002:000000f8       __imp__LeaveCriticalSection@4 100260f8     kernel32:KERNEL32.dll
 0002:000000fc       __imp__EnterCriticalSection@4 100260fc     kernel32:KERNEL32.dll
 0002:00000100       __imp__WideCharToMultiByte@32 10026100     kernel32:KERNEL32.dll
 0002:00000104       __imp__CreateEventA@16     10026104     kernel32:KERNEL32.dll
 0002:00000108       __imp__FreeLibrary@4       10026108     kernel32:KERNEL32.dll
 0002:0000010c       __imp__LocalFree@4         1002610c     kernel32:KERNEL32.dll
 0002:00000110       __imp__GetProcAddress@8    10026110     kernel32:KERNEL32.dll
 0002:00000114       __imp__GetOverlappedResult@16 10026114     kernel32:KERNEL32.dll
 0002:00000118       __imp__ResetEvent@4        10026118     kernel32:KERNEL32.dll
 0002:0000011c       __imp__CloseHandle@4       1002611c     kernel32:KERNEL32.dll
 0002:00000120       __imp__ReadFile@20         10026120     kernel32:KERNEL32.dll
 0002:00000124       __imp__CancelIo@4          10026124     kernel32:KERNEL32.dll
 0002:00000128       __imp__WriteFile@20        10026128     kernel32:KERNEL32.dll
 0002:0000012c       __imp__DeviceIoControl@32  1002612c     kernel32:KERNEL32.dll
 0002:00000130       __imp__WaitForSingleObject@8 10026130     kernel32:KERNEL32.dll
 0002:00000134       __imp__FormatMessageW@28   10026134     kernel32:KERNEL32.dll
 0002:00000138       __imp__GetLastError@0      10026138     kernel32:KERNEL32.dll
 0002:0000013c       __imp__CreateFileA@28      1002613c     kernel32:KERNEL32.dll
 0002:00000140       __imp__LoadLibraryA@4      10026140     kernel32:KERNEL32.dll
 0002:00000144       __imp__CreateFileW@28      10026144     kernel32:KERNEL32.dll
 0002:00000148       \177KERNEL32_NULL_THUNK_DATA 10026148     kernel32:KERNEL32.dll
 0002:0000014c       __imp__SetupDiGetDeviceInterfaceDetailA@24 1002614c     setupapi:SETUPAPI.dll
 0002:00000150       __imp__SetupDiGetClassDevsA@16 10026150     setupapi:SETUPAPI.dll
 0002:00000154       __imp__SetupDiEnumDeviceInterfaces@20 10026154     setupapi:SETUPAPI.dll
 0002:00000158       __imp__SetupDiDestroyDeviceInfoList@4 10026158     setupapi:SETUPAPI.dll
 0002:0000015c       __imp__SetupDiEnumDeviceInfo@12 1002615c     setupapi:SETUPAPI.dll
 0002:00000160       __imp__SetupDiGetDeviceRegistryPropertyA@28 10026160     setupapi:SETUPAPI.dll
 0002:00000164       \177SETUPAPI_NULL_THUNK_DATA 10026164     setupapi:SETUPAPI.dll
 0002:00000168       __imp_?ToString@Value@v8@@QBE?AV?$Local@VString@v8@@@2@XZ 10026168     iojs:node.dll
 0002:0000016c       __imp__uv_default_loop     1002616c     iojs:node.dll
 0002:00000170       __imp_?EmitAsyncInit@node@@YA?AUasync_context@1@PAVIsolate@v8@@V?$Local@VObject@v8@@@4@V?$Local@VString@v8@@@4@N@Z 10026170     iojs:node.dll
 0002:00000174       __imp_?MakeCallback@node@@YA?AV?$MaybeLocal@VValue@v8@@@v8@@PAVIsolate@3@V?$Local@VObject@v8@@@3@V?$Local@VFunction@v8@@@3@HPAV?$Local@VValue@v8@@@3@Uasync_context@1@@Z 10026174     iojs:node.dll
 0002:00000178       __imp_?Data@Buffer@node@@YAPADV?$Local@VObject@v8@@@v8@@@Z 10026178     iojs:node.dll
 0002:0000017c       __imp_?New@Buffer@node@@YA?AV?$MaybeLocal@VObject@v8@@@v8@@PAVIsolate@4@I@Z 1002617c     iojs:node.dll
 0002:00000180       __imp__node_module_register 10026180     iojs:node.dll
 0002:00000184       __imp_?FatalException@node@@YAXPAVIsolate@v8@@ABVTryCatch@3@@Z 10026184     iojs:node.dll
 0002:00000188       __imp_?EmitAsyncDestroy@node@@YAXPAVIsolate@v8@@Uasync_context@1@@Z 10026188     iojs:node.dll
 0002:0000018c       __imp_?AtExit@node@@YAXP6AXPAX@Z0@Z 1002618c     iojs:node.dll
 0002:00000190       __imp_?New@ObjectTemplate@v8@@SA?AV?$Local@VObjectTemplate@v8@@@2@PAVIsolate@2@V?$Local@VFunctionTemplate@v8@@@2@@Z 10026190     iojs:node.dll
 0002:00000194       __imp_?NewInstance@ObjectTemplate@v8@@QAE?AV?$MaybeLocal@VObject@v8@@@2@V?$Local@VContext@v8@@@2@@Z 10026194     iojs:node.dll
 0002:00000198       __imp_?SetInternalFieldCount@ObjectTemplate@v8@@QAEXH@Z 10026198     iojs:node.dll
 0002:0000019c       __imp_?Set@Object@v8@@QAE_NIV?$Local@VValue@v8@@@2@@Z 1002619c     iojs:node.dll
 0002:000001a0       __imp_?Set@Object@v8@@QAE_NV?$Local@VValue@v8@@@2@0@Z 100261a0     iojs:node.dll
 0002:000001a4       __imp_?Get@Object@v8@@QAE?AV?$Local@VValue@v8@@@2@I@Z 100261a4     iojs:node.dll
 0002:000001a8       __imp_?InternalFieldCount@Object@v8@@QAEHXZ 100261a8     iojs:node.dll
 0002:000001ac       __imp_?SetInternalField@Object@v8@@QAEXHV?$Local@VValue@v8@@@2@@Z 100261ac     iojs:node.dll
 0002:000001b0       __imp_?SetAlignedPointerInInternalField@Object@v8@@QAEXHPAX@Z 100261b0     iojs:node.dll
 0002:000001b4       __imp_?New@Object@v8@@SA?AV?$Local@VObject@v8@@@2@PAVIsolate@2@@Z 100261b4     iojs:node.dll
 0002:000001b8       __imp_?SlowGetInternalField@Object@v8@@AAE?AV?$Local@VValue@v8@@@2@H@Z 100261b8     iojs:node.dll
 0002:000001bc       __imp_?SlowGetAlignedPointerFromInternalField@Object@v8@@AAEPAXH@Z 100261bc     iojs:node.dll
 0002:000001c0       __imp_?Length@String@v8@@QBEHXZ 100261c0     iojs:node.dll
 0002:000001c4       __imp_?WriteUtf8@String@v8@@QBEHPADHPAHH@Z 100261c4     iojs:node.dll
 0002:000001c8       __imp_??0EscapableHandleScope@v8@@QAE@PAVIsolate@1@@Z 100261c8     iojs:node.dll
 0002:000001cc       __imp_?Escape@EscapableHandleScope@v8@@AAEPAPAVObject@internal@2@PAPAV342@@Z 100261cc     iojs:node.dll
 0002:000001d0       __imp_??0TryCatch@v8@@QAE@PAVIsolate@1@@Z 100261d0     iojs:node.dll
 0002:000001d4       __imp_??1TryCatch@v8@@QAE@XZ 100261d4     iojs:node.dll
 0002:000001d8       __imp_?HasCaught@TryCatch@v8@@QBE_NXZ 100261d8     iojs:node.dll
 0002:000001dc       __imp_?IsFunction@Value@v8@@QBE_NXZ 100261dc     iojs:node.dll
 0002:000001e0       __imp_?IsNumber@Value@v8@@QBE_NXZ 100261e0     iojs:node.dll
 0002:000001e4       __imp_?IsUint32@Value@v8@@QBE_NXZ 100261e4     iojs:node.dll
 0002:000001e8       __imp_?ToInteger@Value@v8@@QBE?AV?$MaybeLocal@VInteger@v8@@@2@V?$Local@VContext@v8@@@2@@Z 100261e8     iojs:node.dll
 0002:000001ec       __imp_?Uint32Value@Value@v8@@QBE?AV?$Maybe@I@2@V?$Local@VContext@v8@@@2@@Z 100261ec     iojs:node.dll
 0002:000001f0       __imp_?Int32Value@Value@v8@@QBEHXZ 100261f0     iojs:node.dll
 0002:000001f4       __imp_?GlobalizeReference@V8@v8@@CAPAPAVObject@internal@2@PAVIsolate@42@PAPAV342@@Z 100261f4     iojs:node.dll
 0002:000001f8       __imp_?DisposeGlobal@V8@v8@@CAXPAPAVObject@internal@2@@Z 100261f8     iojs:node.dll
 0002:000001fc       __imp_?MakeWeak@V8@v8@@CAXPAPAVObject@internal@2@PAXP6AXABV?$WeakCallbackInfo@X@2@@ZW4WeakCallbackType@2@@Z 100261fc     iojs:node.dll
 0002:00000200       __imp_?ClearWeak@V8@v8@@CAPAXPAPAVObject@internal@2@@Z 10026200     iojs:node.dll
 0002:00000204       __imp_?FromJustIsNothing@V8@v8@@CAXXZ 10026204     iojs:node.dll
 0002:00000208       __imp_?ToLocalEmpty@V8@v8@@CAXXZ 10026208     iojs:node.dll
 0002:0000020c       __imp_?New@FunctionTemplate@v8@@SA?AV?$Local@VFunctionTemplate@v8@@@2@PAVIsolate@2@P6AXABV?$FunctionCallbackInfo@VValue@v8@@@2@@ZV?$Local@VValue@v8@@@2@V?$Local@VSignature@v8@@@2@HW4ConstructorBehavior@2@@Z 1002620c     iojs:node.dll
 0002:00000210       __imp_?GetFunction@FunctionTemplate@v8@@QAE?AV?$Local@VFunction@v8@@@2@XZ 10026210     iojs:node.dll
 0002:00000214       __imp_?InstanceTemplate@FunctionTemplate@v8@@QAE?AV?$Local@VObjectTemplate@v8@@@2@XZ 10026214     iojs:node.dll
 0002:00000218       __imp_?PrototypeTemplate@FunctionTemplate@v8@@QAE?AV?$Local@VObjectTemplate@v8@@@2@XZ 10026218     iojs:node.dll
 0002:0000021c       __imp_?SetClassName@FunctionTemplate@v8@@QAEXV?$Local@VString@v8@@@2@@Z 1002621c     iojs:node.dll
 0002:00000220       __imp_?Length@Array@v8@@QBEIXZ 10026220     iojs:node.dll
 0002:00000224       __imp_?New@Array@v8@@SA?AV?$Local@VArray@v8@@@2@PAVIsolate@2@H@Z 10026224     iojs:node.dll
 0002:00000228       __imp_?Error@Exception@v8@@SA?AV?$Local@VValue@v8@@@2@V?$Local@VString@v8@@@2@@Z 10026228     iojs:node.dll
 0002:0000022c       __imp_?Set@Template@v8@@QAEXV?$Local@VName@v8@@@2@V?$Local@VData@v8@@@2@W4PropertyAttribute@2@@Z 1002622c     iojs:node.dll
 0002:00000230       __imp_??0HandleScope@v8@@QAE@PAVIsolate@1@@Z 10026230     iojs:node.dll
 0002:00000234       __imp_??1HandleScope@v8@@QAE@XZ 10026234     iojs:node.dll
 0002:00000238       __imp_?CreateHandle@HandleScope@v8@@CAPAPAVObject@internal@2@PAVHeapObject@42@PAV342@@Z 10026238     iojs:node.dll
 0002:0000023c       __imp_?CreateHandle@HandleScope@v8@@KAPAPAVObject@internal@2@PAVIsolate@42@PAV342@@Z 1002623c     iojs:node.dll
 0002:00000240       __imp_?GetCurrent@Isolate@v8@@SAPAV12@XZ 10026240     iojs:node.dll
 0002:00000244       __imp_?GetCurrentContext@Isolate@v8@@QAE?AV?$Local@VContext@v8@@@2@XZ 10026244     iojs:node.dll
 0002:00000248       __imp_?ThrowException@Isolate@v8@@QAE?AV?$Local@VValue@v8@@@2@V32@@Z 10026248     iojs:node.dll
 0002:0000024c       __imp_?New@Signature@v8@@SA?AV?$Local@VSignature@v8@@@2@PAVIsolate@2@V?$Local@VFunctionTemplate@v8@@@2@@Z 1002624c     iojs:node.dll
 0002:00000250       __imp_?New@Integer@v8@@SA?AV?$Local@VInteger@v8@@@2@PAVIsolate@2@H@Z 10026250     iojs:node.dll
 0002:00000254       __imp_?New@External@v8@@SA?AV?$Local@VExternal@v8@@@2@PAVIsolate@2@PAX@Z 10026254     iojs:node.dll
 0002:00000258       __imp_?Value@External@v8@@QBEPAXXZ 10026258     iojs:node.dll
 0002:0000025c       __imp_?Global@Context@v8@@QAE?AV?$Local@VObject@v8@@@2@XZ 1002625c     iojs:node.dll
 0002:00000260       __imp__uv_queue_work       10026260     iojs:node.dll
 0002:00000264       __imp_?NewFromUtf8@String@v8@@SA?AV?$MaybeLocal@VString@v8@@@2@PAVIsolate@2@PBDW4NewStringType@2@H@Z 10026264     iojs:node.dll
 0002:00000268       \177node_NULL_THUNK_DATA   10026268     iojs:node.dll
 0002:0000026c       ___guard_check_icall_fptr  1002626c     LIBCMT:guard_support.obj
 0002:00000270       ___xc_a                    10026270     LIBCMT:initializers.obj
 0002:00000288       __register_HID_            10026288     HID.obj
 0002:0000028c       ___xc_z                    1002628c     LIBCMT:initializers.obj
 0002:00000290       ___xi_a                    10026290     LIBCMT:initializers.obj
 0002:00000298       ___acrt_stdio_initializer  10026298     libucrt:stdio_initializer.obj
 0002:0000029c       ___acrt_tran_sse2_initializer 1002629c     libucrt:sse2_initializer.obj
 0002:000002a0       ___acrt_timeset_initializer 100262a0     libucrt:timeset_initializer.obj
 0002:000002a4       ___acrt_multibyte_initializer 100262a4     libucrt:multibyte_initializer.obj
 0002:000002a8       ___xi_z                    100262a8     LIBCMT:initializers.obj
 0002:000002ac       ___xp_a                    100262ac     LIBCMT:initializers.obj
 0002:000002b0       ___acrt_locale_terminator  100262b0     libucrt:locale_initializer.obj
 0002:000002b4       ___dcrt_console_output_terminator 100262b4     libucrt:console_output_initializer.obj
 0002:000002b8       ___acrt_stdio_terminator   100262b8     libucrt:stdio_initializer.obj
 0002:000002bc       ___xp_z                    100262bc     LIBCMT:initializers.obj
 0002:000002c0       ___xt_a                    100262c0     LIBCMT:initializers.obj
 0002:000002c4       ___xt_z                    100262c4     LIBCMT:initializers.obj
 0002:000002d4       ??_7exception@std@@6B@     100262d4     libcpmt:xonce.obj
 0002:000002dc       ??_C@_0BC@EOODALEL@Unknown?5exception@ 100262dc     libcpmt:xonce.obj
 0002:000002f4       ??_7runtime_error@std@@6B@ 100262f4     libcpmt:xonce.obj
 0002:00000300       ??_7_System_error@std@@6B@ 10026300     libcpmt:xonce.obj
 0002:00000308       ??_C@_0O@BFJCFAAK@unknown?5error@ 10026308     libcpmt:xonce.obj
 0002:0000031c       ??_7_Facet_base@std@@6B@   1002631c     libcpmt:locale0.obj
 0002:0000032c       ??_7_Locimp@locale@std@@6B@ 1002632c     libcpmt:locale0.obj
 0002:00000338       ??_C@_01NBENCBCI@?$CK@     10026338     libcpmt:locale0.obj
 0002:0000033c       ??_C@_01GFHCPBMG@C@        1002633c     libcpmt:locale0.obj
 0002:00000344       ??_7bad_alloc@std@@6B@     10026344     libcpmt:xthrow.obj
 0002:0000034c       ??_C@_0P@GHFPNOJB@bad?5allocation@ 1002634c     libcpmt:xthrow.obj
 0002:00000360       ??_7logic_error@std@@6B@   10026360     libcpmt:xthrow.obj
 0002:0000036c       ??_7length_error@std@@6B@  1002636c     libcpmt:xthrow.obj
 0002:00000378       ??_7out_of_range@std@@6B@  10026378     libcpmt:xthrow.obj
 0002:00000380       ?_BADOFF@std@@3_JB         10026380     libcpmt:ios.obj
 0002:00000860       ??_C@_0BN@LKKBCCDB@address?5family?5not?5supported@ 10026860     libcpmt:syserror.obj
 0002:00000880       ??_C@_0P@LDMLAFHI@address?5in?5use@ 10026880     libcpmt:syserror.obj
 0002:00000890       ??_C@_0BG@DHPCNBJB@address?5not?5available@ 10026890     libcpmt:syserror.obj
 0002:000008a8       ??_C@_0BC@DFIBIBIL@already?5connected@ 100268a8     libcpmt:syserror.obj
 0002:000008bc       ??_C@_0BH@CAKOHOMI@argument?5list?5too?5long@ 100268bc     libcpmt:syserror.obj
 0002:000008d4       ??_C@_0BH@CGIMPKIM@argument?5out?5of?5domain@ 100268d4     libcpmt:syserror.obj
 0002:000008ec       ??_C@_0M@KGHGGJGL@bad?5address@ 100268ec     libcpmt:syserror.obj
 0002:000008f8       ??_C@_0BE@MPJPGCEO@bad?5file?5descriptor@ 100268f8     libcpmt:syserror.obj
 0002:0000090c       ??_C@_0M@PMMIEFCP@bad?5message@ 1002690c     libcpmt:syserror.obj
 0002:00000918       ??_C@_0M@KPHOFDBE@broken?5pipe@ 10026918     libcpmt:syserror.obj
 0002:00000924       ??_C@_0BD@MGNDDEGM@connection?5aborted@ 10026924     libcpmt:syserror.obj
 0002:00000938       ??_C@_0BP@KAIHPOGN@connection?5already?5in?5progress@ 10026938     libcpmt:syserror.obj
 0002:00000958       ??_C@_0BD@PJLIIJEL@connection?5refused@ 10026958     libcpmt:syserror.obj
 0002:0000096c       ??_C@_0BB@IECNJNOI@connection?5reset@ 1002696c     libcpmt:syserror.obj
 0002:00000980       ??_C@_0BC@PPHBOELF@cross?5device?5link@ 10026980     libcpmt:syserror.obj
 0002:00000994       ??_C@_0BN@KDMIFEIP@destination?5address?5required@ 10026994     libcpmt:syserror.obj
 0002:000009b4       ??_C@_0BI@NGCEHDD@device?5or?5resource?5busy@ 100269b4     libcpmt:syserror.obj
 0002:000009cc       ??_C@_0BE@JIDOCPHM@directory?5not?5empty@ 100269cc     libcpmt:syserror.obj
 0002:000009e0       ??_C@_0BI@BNCLIGPB@executable?5format?5error@ 100269e0     libcpmt:syserror.obj
 0002:000009f8       ??_C@_0M@MIDIAGJP@file?5exists@ 100269f8     libcpmt:syserror.obj
 0002:00000a04       ??_C@_0P@DNAJLBJK@file?5too?5large@ 10026a04     libcpmt:syserror.obj
 0002:00000a14       ??_C@_0BC@EJHOMAAK@filename?5too?5long@ 10026a14     libcpmt:syserror.obj
 0002:00000a28       ??_C@_0BH@KEFGLDAF@function?5not?5supported@ 10026a28     libcpmt:syserror.obj
 0002:00000a40       ??_C@_0BB@DHFDFGDM@host?5unreachable@ 10026a40     libcpmt:syserror.obj
 0002:00000a54       ??_C@_0BD@JPHBMONG@identifier?5removed@ 10026a54     libcpmt:syserror.obj
 0002:00000a68       ??_C@_0BG@CDNPAGJK@illegal?5byte?5sequence@ 10026a68     libcpmt:syserror.obj
 0002:00000a80       ??_C@_0CD@BNPLBMNA@inappropriate?5io?5control?5operat@ 10026a80     libcpmt:syserror.obj
 0002:00000aa4       ??_C@_0M@EGEKIIMP@interrupted@ 10026aa4     libcpmt:syserror.obj
 0002:00000ab0       ??_C@_0BB@FCMFBGOM@invalid?5argument@ 10026ab0     libcpmt:syserror.obj
 0002:00000ac4       ??_C@_0N@OHAFKDEK@invalid?5seek@ 10026ac4     libcpmt:syserror.obj
 0002:00000ad4       ??_C@_08GLNPIFBN@io?5error@ 10026ad4     libcpmt:syserror.obj
 0002:00000ae0       ??_C@_0P@FLLDBIDK@is?5a?5directory@ 10026ae0     libcpmt:syserror.obj
 0002:00000af0       ??_C@_0N@IFLPBIOP@message?5size@ 10026af0     libcpmt:syserror.obj
 0002:00000b00       ??_C@_0N@KIIEAAIO@network?5down@ 10026b00     libcpmt:syserror.obj
 0002:00000b10       ??_C@_0O@FNPDBHEE@network?5reset@ 10026b10     libcpmt:syserror.obj
 0002:00000b20       ??_C@_0BE@IFNCKGE@network?5unreachable@ 10026b20     libcpmt:syserror.obj
 0002:00000b34       ??_C@_0BA@PFFCAOFK@no?5buffer?5space@ 10026b34     libcpmt:syserror.obj
 0002:00000b44       ??_C@_0BB@IEPBLJHK@no?5child?5process@ 10026b44     libcpmt:syserror.obj
 0002:00000b58       ??_C@_07PLECNNKG@no?5link@ 10026b58     libcpmt:syserror.obj
 0002:00000b60       ??_C@_0BC@NJECKMKE@no?5lock?5available@ 10026b60     libcpmt:syserror.obj
 0002:00000b74       ??_C@_0BF@PBGGPKKE@no?5message?5available@ 10026b74     libcpmt:syserror.obj
 0002:00000b8c       ??_C@_0L@EDOLMPAK@no?5message@ 10026b8c     libcpmt:syserror.obj
 0002:00000b98       ??_C@_0BD@EAMBFIDF@no?5protocol?5option@ 10026b98     libcpmt:syserror.obj
 0002:00000bac       ??_C@_0BD@IJDJKDEA@no?5space?5on?5device@ 10026bac     libcpmt:syserror.obj
 0002:00000bc0       ??_C@_0BE@MKFDAFMP@no?5stream?5resources@ 10026bc0     libcpmt:syserror.obj
 0002:00000bd4       ??_C@_0BK@IMCPHCBI@no?5such?5device?5or?5address@ 10026bd4     libcpmt:syserror.obj
 0002:00000bf0       ??_C@_0P@FDINDDOK@no?5such?5device@ 10026bf0     libcpmt:syserror.obj
 0002:00000c00       ??_C@_0BK@NDOCBPGE@no?5such?5file?5or?5directory@ 10026c00     libcpmt:syserror.obj
 0002:00000c1c       ??_C@_0BA@ENLPPKBN@no?5such?5process@ 10026c1c     libcpmt:syserror.obj
 0002:00000c2c       ??_C@_0BA@DOCPFFJG@not?5a?5directory@ 10026c2c     libcpmt:syserror.obj
 0002:00000c3c       ??_C@_0N@POEIPGGF@not?5a?5socket@ 10026c3c     libcpmt:syserror.obj
 0002:00000c4c       ??_C@_0N@LGAPMMPI@not?5a?5stream@ 10026c4c     libcpmt:syserror.obj
 0002:00000c5c       ??_C@_0O@GLMIBBEG@not?5connected@ 10026c5c     libcpmt:syserror.obj
 0002:00000c6c       ??_C@_0BC@ENOOLCNF@not?5enough?5memory@ 10026c6c     libcpmt:syserror.obj
 0002:00000c80       ??_C@_0O@NHEDABJP@not?5supported@ 10026c80     libcpmt:syserror.obj
 0002:00000c90       ??_C@_0BD@MOLBPMEA@operation?5canceled@ 10026c90     libcpmt:syserror.obj
 0002:00000ca4       ??_C@_0BG@KDKHOPCO@operation?5in?5progress@ 10026ca4     libcpmt:syserror.obj
 0002:00000cbc       ??_C@_0BI@OHIEJAAB@operation?5not?5permitted@ 10026cbc     libcpmt:syserror.obj
 0002:00000cd4       ??_C@_0BI@LNEGIFLN@operation?5not?5supported@ 10026cd4     libcpmt:syserror.obj
 0002:00000cec       ??_C@_0BG@OEMDKMEE@operation?5would?5block@ 10026cec     libcpmt:syserror.obj
 0002:00000d04       ??_C@_0L@BLPOFLNJ@owner?5dead@ 10026d04     libcpmt:syserror.obj
 0002:00000d10       ??_C@_0BC@CIJDGCDI@permission?5denied@ 10026d10     libcpmt:syserror.obj
 0002:00000d24       ??_C@_0P@FNPOCJBE@protocol?5error@ 10026d24     libcpmt:syserror.obj
 0002:00000d34       ??_C@_0BH@JPPPLHJB@protocol?5not?5supported@ 10026d34     libcpmt:syserror.obj
 0002:00000d4c       ??_C@_0BG@EICBIHDP@read?5only?5file?5system@ 10026d4c     libcpmt:syserror.obj
 0002:00000d64       ??_C@_0BO@BJBOMOEJ@resource?5deadlock?5would?5occur@ 10026d64     libcpmt:syserror.obj
 0002:00000d84       ??_C@_0BP@LKNGHENJ@resource?5unavailable?5try?5again@ 10026d84     libcpmt:syserror.obj
 0002:00000da4       ??_C@_0BE@GOIPJJHG@result?5out?5of?5range@ 10026da4     libcpmt:syserror.obj
 0002:00000db8       ??_C@_0BG@MPLKFPAE@state?5not?5recoverable@ 10026db8     libcpmt:syserror.obj
 0002:00000dd0       ??_C@_0P@DIIFGFCG@stream?5timeout@ 10026dd0     libcpmt:syserror.obj
 0002:00000de0       ??_C@_0P@IPFDMIFL@text?5file?5busy@ 10026de0     libcpmt:syserror.obj
 0002:00000df0       ??_C@_09KJPPMAOI@timed?5out@ 10026df0     libcpmt:syserror.obj
 0002:00000dfc       ??_C@_0BO@HACHBEKI@too?5many?5files?5open?5in?5system@ 10026dfc     libcpmt:syserror.obj
 0002:00000e1c       ??_C@_0BE@GHAFMPAH@too?5many?5files?5open@ 10026e1c     libcpmt:syserror.obj
 0002:00000e30       ??_C@_0P@HCOMKFCC@too?5many?5links@ 10026e30     libcpmt:syserror.obj
 0002:00000e40       ??_C@_0BO@EFGOJEF@too?5many?5symbolic?5link?5levels@ 10026e40     libcpmt:syserror.obj
 0002:00000e60       ??_C@_0BA@KGKGOOJA@value?5too?5large@ 10026e60     libcpmt:syserror.obj
 0002:00000e70       ??_C@_0BE@MIEJDDNH@wrong?5protocol?5type@ 10026e70     libcpmt:syserror.obj
 0002:00000e84       ??_C@_1BK@MGMFAEKH@?$AAk?$AAe?$AAr?$AAn?$AAe?$AAl?$AA3?$AA2?$AA?4?$AAd?$AAl?$AAl@ 10026e84     libcpmt:winapisupp.obj
 0002:00000ea0       ??_C@_08KNHFBNJ@FlsAlloc@  10026ea0     libcpmt:winapisupp.obj
 0002:00000eac       ??_C@_07PEJMOBNF@FlsFree@  10026eac     libcpmt:winapisupp.obj
 0002:00000eb4       ??_C@_0M@GDNOONDI@FlsGetValue@ 10026eb4     libcpmt:winapisupp.obj
 0002:00000ec0       ??_C@_0M@JCPCPOEF@FlsSetValue@ 10026ec0     libcpmt:winapisupp.obj
 0002:00000ecc       ??_C@_0BM@HCFOFFN@InitializeCriticalSectionEx@ 10026ecc     libcpmt:winapisupp.obj
 0002:00000ee8       ??_C@_0BE@GPLMMCMH@InitOnceExecuteOnce@ 10026ee8     libcpmt:winapisupp.obj
 0002:00000efc       ??_C@_0P@DLHPPCNH@CreateEventExW@ 10026efc     libcpmt:winapisupp.obj
 0002:00000f0c       ??_C@_0BB@MEFPJLHN@CreateSemaphoreW@ 10026f0c     libcpmt:winapisupp.obj
 0002:00000f20       ??_C@_0BD@KIEEOEEH@CreateSemaphoreExW@ 10026f20     libcpmt:winapisupp.obj
 0002:00000f34       ??_C@_0BG@OGFAJCKC@CreateThreadpoolTimer@ 10026f34     libcpmt:winapisupp.obj
 0002:00000f4c       ??_C@_0BD@LPLEMMDI@SetThreadpoolTimer@ 10026f4c     libcpmt:winapisupp.obj
 0002:00000f60       ??_C@_0CA@FMNJENH@WaitForThreadpoolTimerCallbacks@ 10026f60     libcpmt:winapisupp.obj
 0002:00000f80       ??_C@_0BF@DCFCCNOC@CloseThreadpoolTimer@ 10026f80     libcpmt:winapisupp.obj
 0002:00000f98       ??_C@_0BF@FLABGKKM@CreateThreadpoolWait@ 10026f98     libcpmt:winapisupp.obj
 0002:00000fb0       ??_C@_0BC@MGCOHNA@SetThreadpoolWait@ 10026fb0     libcpmt:winapisupp.obj
 0002:00000fc4       ??_C@_0BE@OCIOMIMP@CloseThreadpoolWait@ 10026fc4     libcpmt:winapisupp.obj
 0002:00000fd8       ??_C@_0BJ@LKGHFHBO@FlushProcessWriteBuffers@ 10026fd8     libcpmt:winapisupp.obj
 0002:00000ff4       ??_C@_0BP@KALKKPMO@FreeLibraryWhenCallbackReturns@ 10026ff4     libcpmt:winapisupp.obj
 0002:00001014       ??_C@_0BK@DFNBACLA@GetCurrentProcessorNumber@ 10027014     libcpmt:winapisupp.obj
 0002:00001030       ??_C@_0BE@FKKLLFLM@CreateSymbolicLinkW@ 10027030     libcpmt:winapisupp.obj
 0002:00001044       ??_C@_0BE@JOGNEJCI@GetCurrentPackageId@ 10027044     libcpmt:winapisupp.obj
 0002:00001058       ??_C@_0P@CDHHOHKP@GetTickCount64@ 10027058     libcpmt:winapisupp.obj
 0002:00001068       ??_C@_0BN@NEEHBBPO@GetFileInformationByHandleEx@ 10027068     libcpmt:winapisupp.obj
 0002:00001088       ??_C@_0BL@KBBHGKCM@SetFileInformationByHandle@ 10027088     libcpmt:winapisupp.obj
 0002:000010a4       ??_C@_0BP@FPNJPEJC@GetSystemTimePreciseAsFileTime@ 100270a4     libcpmt:winapisupp.obj
 0002:000010c4       ??_C@_0BM@HLJJNPAH@InitializeConditionVariable@ 100270c4     libcpmt:winapisupp.obj
 0002:000010e0       ??_C@_0BG@BFNILBLN@WakeConditionVariable@ 100270e0     libcpmt:winapisupp.obj
 0002:000010f8       ??_C@_0BJ@PGPPEPCC@WakeAllConditionVariable@ 100270f8     libcpmt:winapisupp.obj
 0002:00001114       ??_C@_0BJ@JEBJOJFJ@SleepConditionVariableCS@ 10027114     libcpmt:winapisupp.obj
 0002:00001130       ??_C@_0BC@MMLHEBPB@InitializeSRWLock@ 10027130     libcpmt:winapisupp.obj
 0002:00001144       ??_C@_0BI@OMNLIJDB@AcquireSRWLockExclusive@ 10027144     libcpmt:winapisupp.obj
 0002:0000115c       ??_C@_0BL@OGHFEMNA@TryAcquireSRWLockExclusive@ 1002715c     libcpmt:winapisupp.obj
 0002:00001178       ??_C@_0BI@HMIEPCNJ@ReleaseSRWLockExclusive@ 10027178     libcpmt:winapisupp.obj
 0002:00001190       ??_C@_0BK@LGACAGIC@SleepConditionVariableSRW@ 10027190     libcpmt:winapisupp.obj
 0002:000011ac       ??_C@_0BF@GGPHFPJA@CreateThreadpoolWork@ 100271ac     libcpmt:winapisupp.obj
 0002:000011c4       ??_C@_0BF@NHDAIMMO@SubmitThreadpoolWork@ 100271c4     libcpmt:winapisupp.obj
 0002:000011dc       ??_C@_0BE@NPHIPNPD@CloseThreadpoolWork@ 100271dc     libcpmt:winapisupp.obj
 0002:000011f0       ??_C@_0BA@IHGNDAEB@CompareStringEx@ 100271f0     libcpmt:winapisupp.obj
 0002:00001200       ??_C@_0BA@ONOKGCMP@GetLocaleInfoEx@ 10027200     libcpmt:winapisupp.obj
 0002:00001210       ??_C@_0O@KKBNKAPF@LCMapStringEx@ 10027210     libcpmt:winapisupp.obj
 0002:00001224       ??_7?$ctype@D@std@@6B@     10027224     libcpmt:locale.obj
 0002:00001254       ??_7?$num_put@DV?$ostreambuf_iterator@DU?$char_traits@D@std@@@std@@@std@@6B@ 10027254     libcpmt:locale.obj
 0002:00001284       ??_7?$numpunct@D@std@@6B@  10027284     libcpmt:locale.obj
 0002:000012a4       ??_C@_11LOCGONAA@@         100272a4     libcpmt:wlocale.obj
 0002:000012a8       ??_C@_01JOAMLHOP@?9@       100272a8     libcpmt:wlocale.obj
 0002:00002190       ??_C@_15EMKDOKLE@?$AAa?$AAr@ 10028190     libcpmt:winapinls.obj
 0002:00002198       ??_C@_15KNPADPLH@?$AAb?$AAg@ 10028198     libcpmt:winapinls.obj
 0002:000021a0       ??_C@_15EDMHLDMO@?$AAc?$AAa@ 100281a0     libcpmt:winapinls.obj
 0002:000021a8       ??_C@_1O@BPEAJADD@?$AAz?$AAh?$AA?9?$AAC?$AAH?$AAS@ 100281a8     libcpmt:winapinls.obj
 0002:000021b8       ??_C@_15LJNHCMNK@?$AAc?$AAs@ 100281b8     libcpmt:winapinls.obj
 0002:000021c0       ??_C@_15FOMCIDHG@?$AAd?$AAa@ 100281c0     libcpmt:winapinls.obj
 0002:000021c8       ??_C@_15NBKABECB@?$AAd?$AAe@ 100281c8     libcpmt:winapinls.obj
 0002:000021d0       ??_C@_15GHPEIIAO@?$AAe?$AAl@ 100281d0     libcpmt:winapinls.obj
 0002:000021d8       ??_C@_15MNPNEAIF@?$AAe?$AAn@ 100281d8     libcpmt:winapinls.obj
 0002:000021e0       ??_C@_15GPIOMPMH@?$AAe?$AAs@ 100281e0     libcpmt:winapinls.obj
 0002:000021e8       ??_C@_15NGLOAKJC@?$AAf?$AAi@ 100281e8     libcpmt:winapinls.obj
 0002:000021f0       ??_C@_15FBKGNKAM@?$AAf?$AAr@ 100281f0     libcpmt:winapinls.obj
 0002:000021f8       ??_C@_15KGGCNEFK@?$AAh?$AAe@ 100281f8     libcpmt:winapinls.obj
 0002:00002200       ??_C@_15PGHLIDMF@?$AAh?$AAu@ 10028200     libcpmt:winapinls.obj
 0002:00002208       ??_C@_15BIEMAPLM@?$AAi?$AAs@ 10028208     libcpmt:winapinls.obj
 0002:00002210       ??_C@_15IFJLDHAF@?$AAi?$AAt@ 10028210     libcpmt:winapinls.obj
 0002:00002218       ??_C@_15GEMIOCAG@?$AAj?$AAa@ 10028218     libcpmt:winapinls.obj
 0002:00002220       ??_C@_15EPELEGJA@?$AAk?$AAo@ 10028220     libcpmt:winapinls.obj
 0002:00002228       ??_C@_15NDDHIMN@?$AAn?$AAl@ 10028228     libcpmt:winapinls.obj
 0002:00002230       ??_C@_15BPIGNHCD@?$AAn?$AAo@ 10028230     libcpmt:winapinls.obj
 0002:00002238       ??_C@_15DEOPBLCG@?$AAp?$AAl@ 10028238     libcpmt:winapinls.obj
 0002:00002240       ??_C@_15KBECGEFG@?$AAp?$AAt@ 10028240     libcpmt:winapinls.obj
 0002:00002248       ??_C@_15GLJCBFMD@?$AAr?$AAo@ 10028248     libcpmt:winapinls.obj
 0002:00002250       ??_C@_15FEDGKCDI@?$AAr?$AAu@ 10028250     libcpmt:winapinls.obj
 0002:00002258       ??_C@_15GLKMLLHM@?$AAh?$AAr@ 10028258     libcpmt:winapinls.obj
 0002:00002260       ??_C@_15CPKMFBDB@?$AAs?$AAk@ 10028260     libcpmt:winapinls.obj
 0002:00002268       ??_C@_15BAAIOGMK@?$AAs?$AAq@ 10028268     libcpmt:winapinls.obj
 0002:00002270       ??_C@_15INNPNOHD@?$AAs?$AAv@ 10028270     libcpmt:winapinls.obj
 0002:00002278       ??_C@_15CABMMOGH@?$AAt?$AAh@ 10028278     libcpmt:winapinls.obj
 0002:00002280       ??_C@_15BPLIHJJM@?$AAt?$AAr@ 10028280     libcpmt:winapinls.obj
 0002:00002288       ??_C@_15NEOEKKDJ@?$AAu?$AAr@ 10028288     libcpmt:winapinls.obj
 0002:00002290       ??_C@_15NFICGAJK@?$AAi?$AAd@ 10028290     libcpmt:winapinls.obj
 0002:00002298       ??_C@_15PJPFLCCM@?$AAu?$AAk@ 10028298     libcpmt:winapinls.obj
 0002:000022a0       ??_C@_15HPJPHDM@?$AAb?$AAe@ 100282a0     libcpmt:winapinls.obj
 0002:000022a8       ??_C@_15LCHLGJII@?$AAs?$AAl@ 100282a8     libcpmt:winapinls.obj
 0002:000022b0       ??_C@_15PCFJPHHO@?$AAe?$AAt@ 100282b0     libcpmt:winapinls.obj
 0002:000022b8       ??_C@_15HPFPGODN@?$AAl?$AAv@ 100282b8     libcpmt:winapinls.obj
 0002:000022c0       ??_C@_15NFFGKGLG@?$AAl?$AAt@ 100282c0     libcpmt:winapinls.obj
 0002:000022c8       ??_C@_15BDAKCCHN@?$AAf?$AAa@ 100282c8     libcpmt:winapinls.obj
 0002:000022d0       ??_C@_15NFGIAIAJ@?$AAv?$AAi@ 100282d0     libcpmt:winapinls.obj
 0002:000022d8       ??_C@_15LMKNDMHN@?$AAh?$AAy@ 100282d8     libcpmt:winapinls.obj
 0002:000022e0       ??_C@_15IJBHMCFL@?$AAa?$AAz@ 100282e0     libcpmt:winapinls.obj
 0002:000022e8       ??_C@_15EKOFJABL@?$AAe?$AAu@ 100282e8     libcpmt:winapinls.obj
 0002:000022f0       ??_C@_15BGHADCNK@?$AAm?$AAk@ 100282f0     libcpmt:winapinls.obj
 0002:000022f8       ??_C@_15JDNICKHM@?$AAa?$AAf@ 100282f8     libcpmt:winapinls.obj
 0002:00002300       ??_C@_15KPJEDBKD@?$AAk?$AAa@ 10028300     libcpmt:winapinls.obj
 0002:00002308       ??_C@_15PDNFFFEO@?$AAf?$AAo@ 10028308     libcpmt:winapinls.obj
 0002:00002310       ??_C@_15OMLEGLOC@?$AAh?$AAi@ 10028310     libcpmt:winapinls.obj
 0002:00002318       ??_C@_15IDNNENKK@?$AAm?$AAs@ 10028318     libcpmt:winapinls.obj
 0002:00002320       ??_C@_15MACJNBMH@?$AAk?$AAk@ 10028320     libcpmt:winapinls.obj
 0002:00002328       ??_C@_15DKDJEOND@?$AAk?$AAy@ 10028328     libcpmt:winapinls.obj
 0002:00002330       ??_C@_15DFGDLJBG@?$AAs?$AAw@ 10028330     libcpmt:winapinls.obj
 0002:00002338       ??_C@_15BBFAICNG@?$AAu?$AAz@ 10028338     libcpmt:winapinls.obj
 0002:00002340       ??_C@_15DKNDCGEA@?$AAt?$AAt@ 10028340     libcpmt:winapinls.obj
 0002:00002348       ??_C@_15MGIFMDPL@?$AAp?$AAa@ 10028348     libcpmt:winapinls.obj
 0002:00002350       ??_C@_15HCNDBBA@?$AAg?$AAu@ 10028350     libcpmt:winapinls.obj
 0002:00002358       ??_C@_15FNBEIBON@?$AAt?$AAa@ 10028358     libcpmt:winapinls.obj
 0002:00002360       ??_C@_15NCHGBGLK@?$AAt?$AAe@ 10028360     libcpmt:winapinls.obj
 0002:00002368       ??_C@_15PHPHCBPF@?$AAk?$AAn@ 10028368     libcpmt:winapinls.obj
 0002:00002370       ??_C@_15DLGBCKMP@?$AAm?$AAr@ 10028370     libcpmt:winapinls.obj
 0002:00002378       ??_C@_15EABBLBFF@?$AAs?$AAa@ 10028378     libcpmt:winapinls.obj
 0002:00002380       ??_C@_15CBKOMCOI@?$AAm?$AAn@ 10028380     libcpmt:winapinls.obj
 0002:00002388       ??_C@_15CKDMCJAF@?$AAg?$AAl@ 10028388     libcpmt:winapinls.obj
 0002:00002390       ??_C@_17CNJFBPG@?$AAk?$AAo?$AAk@ 10028390     libcpmt:winapinls.obj
 0002:00002398       ??_C@_17FFBJICPL@?$AAs?$AAy?$AAr@ 10028398     libcpmt:winapinls.obj
 0002:000023a0       ??_C@_17KPNDCPAF@?$AAd?$AAi?$AAv@ 100283a0     libcpmt:winapinls.obj
 0002:000023a8       ??_C@_1M@OKAHONE@?$AAa?$AAr?$AA?9?$AAS?$AAA@ 100283a8     libcpmt:winapinls.obj
 0002:000023b4       ??_C@_1M@FFFIGIGK@?$AAb?$AAg?$AA?9?$AAB?$AAG@ 100283b4     libcpmt:winapinls.obj
 0002:000023c0       ??_C@_1M@BJNKEDC@?$AAc?$AAa?$AA?9?$AAE?$AAS@ 100283c0     libcpmt:winapinls.obj
 0002:000023cc       ??_C@_1M@CLNBBOPM@?$AAz?$AAh?$AA?9?$AAT?$AAW@ 100283cc     libcpmt:winapinls.obj
 0002:000023d8       ??_C@_1M@IJJHFJHA@?$AAc?$AAs?$AA?9?$AAC?$AAZ@ 100283d8     libcpmt:winapinls.obj
 0002:000023e4       ??_C@_1M@CLPEOBGI@?$AAd?$AAa?$AA?9?$AAD?$AAK@ 100283e4     libcpmt:winapinls.obj
 0002:000023f0       ??_C@_1M@MCMADGCB@?$AAd?$AAe?$AA?9?$AAD?$AAE@ 100283f0     libcpmt:winapinls.obj
 0002:000023fc       ??_C@_1M@OOCKEMAM@?$AAe?$AAl?$AA?9?$AAG?$AAR@ 100283fc     libcpmt:winapinls.obj
 0002:00002408       ??_C@_1M@BMHNFIME@?$AAe?$AAn?$AA?9?$AAU?$AAS@ 10028408     libcpmt:winapinls.obj
 0002:00002414       ??_C@_1M@DDNJFGID@?$AAf?$AAi?$AA?9?$AAF?$AAI@ 10028414     libcpmt:winapinls.obj
 0002:00002420       ??_C@_1M@GLIPPMAC@?$AAf?$AAr?$AA?9?$AAF?$AAR@ 10028420     libcpmt:winapinls.obj
 0002:0000242c       ??_C@_1M@GFMCHPE@?$AAh?$AAe?$AA?9?$AAI?$AAL@ 1002842c     libcpmt:winapinls.obj
 0002:00002438       ??_C@_1M@MHLPGNKM@?$AAh?$AAu?$AA?9?$AAH?$AAU@ 10028438     libcpmt:winapinls.obj
 0002:00002444       ??_C@_1M@LPDDNNPN@?$AAi?$AAs?$AA?9?$AAI?$AAS@ 10028444     libcpmt:winapinls.obj
 0002:00002450       ??_C@_1M@MADIPODN@?$AAi?$AAt?$AA?9?$AAI?$AAT@ 10028450     libcpmt:winapinls.obj
 0002:0000245c       ??_C@_1M@HPNHIDJI@?$AAj?$AAa?$AA?9?$AAJ?$AAP@ 1002845c     libcpmt:winapinls.obj
 0002:00002468       ??_C@_1M@JLOOOEGK@?$AAk?$AAo?$AA?9?$AAK?$AAR@ 10028468     libcpmt:winapinls.obj
 0002:00002474       ??_C@_1M@IHBJJGG@?$AAn?$AAl?$AA?9?$AAN?$AAL@ 10028474     libcpmt:winapinls.obj
 0002:00002480       ??_C@_1M@EANAGDL@?$AAn?$AAb?$AA?9?$AAN?$AAO@ 10028480     libcpmt:winapinls.obj
 0002:0000248c       ??_C@_1M@NEIEMEGP@?$AAp?$AAl?$AA?9?$AAP?$AAL@ 1002848c     libcpmt:winapinls.obj
 0002:00002498       ??_C@_1M@BOCFIGEP@?$AAp?$AAt?$AA?9?$AAB?$AAR@ 10028498     libcpmt:winapinls.obj
 0002:000024a4       ??_C@_1M@IMPFOPBG@?$AAr?$AAo?$AA?9?$AAR?$AAO@ 100284a4     libcpmt:winapinls.obj
 0002:000024b0       ??_C@_1M@IDNNEJMM@?$AAr?$AAu?$AA?9?$AAR?$AAU@ 100284b0     libcpmt:winapinls.obj
 0002:000024bc       ??_C@_1M@LILEEOGM@?$AAh?$AAr?$AA?9?$AAH?$AAR@ 100284bc     libcpmt:winapinls.obj
 0002:000024c8       ??_C@_1M@FKIFEHPB@?$AAs?$AAk?$AA?9?$AAS?$AAK@ 100284c8     libcpmt:winapinls.obj
 0002:000024d4       ??_C@_1M@LJMAMNPJ@?$AAs?$AAq?$AA?9?$AAA?$AAL@ 100284d4     libcpmt:winapinls.obj
 0002:000024e0       ??_C@_1M@GIAKDKJK@?$AAs?$AAv?$AA?9?$AAS?$AAE@ 100284e0     libcpmt:winapinls.obj
 0002:000024ec       ??_C@_1M@MKJKIKCL@?$AAt?$AAh?$AA?9?$AAT?$AAH@ 100284ec     libcpmt:winapinls.obj
 0002:000024f8       ??_C@_1M@MFLCCMPB@?$AAt?$AAr?$AA?9?$AAT?$AAR@ 100284f8     libcpmt:winapinls.obj
 0002:00002504       ??_C@_1M@OIJHDKJN@?$AAu?$AAr?$AA?9?$AAP?$AAK@ 10028504     libcpmt:winapinls.obj
 0002:00002510       ??_C@_1M@LHIPCIEK@?$AAi?$AAd?$AA?9?$AAI?$AAD@ 10028510     libcpmt:winapinls.obj
 0002:0000251c       ??_C@_1M@MFMOBGI@?$AAu?$AAk?$AA?9?$AAU?$AAA@ 1002851c     libcpmt:winapinls.obj
 0002:00002528       ??_C@_1M@OBGLJIPL@?$AAb?$AAe?$AA?9?$AAB?$AAY@ 10028528     libcpmt:winapinls.obj
 0002:00002534       ??_C@_1M@BCFAJEAD@?$AAs?$AAl?$AA?9?$AAS?$AAI@ 10028534     libcpmt:winapinls.obj
 0002:00002540       ??_C@_1M@FKFFEDDN@?$AAe?$AAt?$AA?9?$AAE?$AAE@ 10028540     libcpmt:winapinls.obj
 0002:0000254c       ??_C@_1M@KGKKAACI@?$AAl?$AAv?$AA?9?$AAL?$AAV@ 1002854c     libcpmt:winapinls.obj
 0002:00002558       ??_C@_1M@IFGBIJO@?$AAl?$AAt?$AA?9?$AAL?$AAT@ 10028558     libcpmt:winapinls.obj
 0002:00002564       ??_C@_1M@FGEAHEDM@?$AAf?$AAa?$AA?9?$AAI?$AAR@ 10028564     libcpmt:winapinls.obj
 0002:00002570       ??_C@_1M@KBMAIBFN@?$AAv?$AAi?$AA?9?$AAV?$AAN@ 10028570     libcpmt:winapinls.obj
 0002:0000257c       ??_C@_1M@GPCBKDJK@?$AAh?$AAy?$AA?9?$AAA?$AAM@ 1002857c     libcpmt:winapinls.obj
 0002:00002588       ??_C@_1BG@BECMDDJB@?$AAa?$AAz?$AA?9?$AAA?$AAZ?$AA?9?$AAL?$AAa?$AAt?$AAn@ 10028588     libcpmt:winapinls.obj
 0002:000025a0       ??_C@_1M@MAOFCAEA@?$AAe?$AAu?$AA?9?$AAE?$AAS@ 100285a0     libcpmt:winapinls.obj
 0002:000025ac       ??_C@_1M@IGHABKPI@?$AAm?$AAk?$AA?9?$AAM?$AAK@ 100285ac     libcpmt:winapinls.obj
 0002:000025b8       ??_C@_1M@IAIGNEJG@?$AAt?$AAn?$AA?9?$AAZ?$AAA@ 100285b8     libcpmt:winapinls.obj
 0002:000025c4       ??_C@_1M@IIJCOJFA@?$AAx?$AAh?$AA?9?$AAZ?$AAA@ 100285c4     libcpmt:winapinls.obj
 0002:000025d0       ??_C@_1M@LGPJHNJH@?$AAz?$AAu?$AA?9?$AAZ?$AAA@ 100285d0     libcpmt:winapinls.obj
 0002:000025dc       ??_C@_1M@HOKAOIO@?$AAa?$AAf?$AA?9?$AAZ?$AAA@ 100285dc     libcpmt:winapinls.obj
 0002:000025e8       ??_C@_1M@DPCLHLIE@?$AAk?$AAa?$AA?9?$AAG?$AAE@ 100285e8     libcpmt:winapinls.obj
 0002:000025f4       ??_C@_1M@BLKMHJBI@?$AAf?$AAo?$AA?9?$AAF?$AAO@ 100285f4     libcpmt:winapinls.obj
 0002:00002600       ??_C@_1M@LGGJAPPB@?$AAh?$AAi?$AA?9?$AAI?$AAN@ 10028600     libcpmt:winapinls.obj
 0002:0000260c       ??_C@_1M@FIKPIHFE@?$AAm?$AAt?$AA?9?$AAM?$AAT@ 1002860c     libcpmt:winapinls.obj
 0002:00002618       ??_C@_1M@HEGGPBFA@?$AAs?$AAe?$AA?9?$AAN?$AAO@ 10028618     libcpmt:winapinls.obj
 0002:00002624       ??_C@_1M@EIBJEEPA@?$AAm?$AAs?$AA?9?$AAM?$AAY@ 10028624     libcpmt:winapinls.obj
 0002:00002630       ??_C@_1M@FHLBGMPP@?$AAk?$AAk?$AA?9?$AAK?$AAZ@ 10028630     libcpmt:winapinls.obj
 0002:0000263c       ??_C@_1M@NGJJLCGI@?$AAk?$AAy?$AA?9?$AAK?$AAG@ 1002863c     libcpmt:winapinls.obj
 0002:00002648       ??_C@_1M@GIENNBFC@?$AAs?$AAw?$AA?9?$AAK?$AAE@ 10028648     libcpmt:winapinls.obj
 0002:00002654       ??_C@_1BG@NDGMJIMJ@?$AAu?$AAz?$AA?9?$AAU?$AAZ?$AA?9?$AAL?$AAa?$AAt?$AAn@ 10028654     libcpmt:winapinls.obj
 0002:0000266c       ??_C@_1M@IDCCIHBC@?$AAt?$AAt?$AA?9?$AAR?$AAU@ 1002866c     libcpmt:winapinls.obj
 0002:00002678       ??_C@_1M@LOICPMOJ@?$AAb?$AAn?$AA?9?$AAI?$AAN@ 10028678     libcpmt:winapinls.obj
 0002:00002684       ??_C@_1M@KPKKNEAH@?$AAp?$AAa?$AA?9?$AAI?$AAN@ 10028684     libcpmt:winapinls.obj
 0002:00002690       ??_C@_1M@PJGPPBOG@?$AAg?$AAu?$AA?9?$AAI?$AAN@ 10028690     libcpmt:winapinls.obj
 0002:0000269c       ??_C@_1M@KMKMOPHI@?$AAt?$AAa?$AA?9?$AAI?$AAN@ 1002869c     libcpmt:winapinls.obj
 0002:000026a8       ??_C@_1M@KFEHEPAC@?$AAt?$AAe?$AA?9?$AAI?$AAN@ 100286a8     libcpmt:winapinls.obj
 0002:000026b4       ??_C@_1M@CDCLMGHI@?$AAk?$AAn?$AA?9?$AAI?$AAN@ 100286b4     libcpmt:winapinls.obj
 0002:000026c0       ??_C@_1M@MIODLDKF@?$AAm?$AAl?$AA?9?$AAI?$AAN@ 100286c0     libcpmt:winapinls.obj
 0002:000026cc       ??_C@_1M@PBIEACPO@?$AAm?$AAr?$AA?9?$AAI?$AAN@ 100286cc     libcpmt:winapinls.obj
 0002:000026d8       ??_C@_1M@NIDEAGPH@?$AAs?$AAa?$AA?9?$AAI?$AAN@ 100286d8     libcpmt:winapinls.obj
 0002:000026e4       ??_C@_1M@FHIHCBIO@?$AAm?$AAn?$AA?9?$AAM?$AAN@ 100286e4     libcpmt:winapinls.obj
 0002:000026f0       ??_C@_1M@JAIJPENP@?$AAc?$AAy?$AA?9?$AAG?$AAB@ 100286f0     libcpmt:winapinls.obj
 0002:000026fc       ??_C@_1M@PHGFBEPN@?$AAg?$AAl?$AA?9?$AAE?$AAS@ 100286fc     libcpmt:winapinls.obj
 0002:00002708       ??_C@_1O@KPIPDNCP@?$AAk?$AAo?$AAk?$AA?9?$AAI?$AAN@ 10028708     libcpmt:winapinls.obj
 0002:00002718       ??_C@_1O@KNHJLDJA@?$AAs?$AAy?$AAr?$AA?9?$AAS?$AAY@ 10028718     libcpmt:winapinls.obj
 0002:00002728       ??_C@_1O@MKEKBLAH@?$AAd?$AAi?$AAv?$AA?9?$AAM?$AAV@ 10028728     libcpmt:winapinls.obj
 0002:00002738       ??_C@_1O@OHDCKDDF@?$AAq?$AAu?$AAz?$AA?9?$AAB?$AAO@ 10028738     libcpmt:winapinls.obj
 0002:00002748       ??_C@_1M@LEPJNLFD@?$AAn?$AAs?$AA?9?$AAZ?$AAA@ 10028748     libcpmt:winapinls.obj
 0002:00002754       ??_C@_1M@OMLEIIJB@?$AAm?$AAi?$AA?9?$AAN?$AAZ@ 10028754     libcpmt:winapinls.obj
 0002:00002760       ??_C@_1M@PMPEAILG@?$AAa?$AAr?$AA?9?$AAI?$AAQ@ 10028760     libcpmt:winapinls.obj
 0002:0000276c       ??_C@_1M@BIBDDEMK@?$AAz?$AAh?$AA?9?$AAC?$AAN@ 1002876c     libcpmt:winapinls.obj
 0002:00002778       ??_C@_1M@CNKPNOEE@?$AAd?$AAe?$AA?9?$AAC?$AAH@ 10028778     libcpmt:winapinls.obj
 0002:00002784       ??_C@_1M@LKMGMLKO@?$AAe?$AAn?$AA?9?$AAG?$AAB@ 10028784     libcpmt:winapinls.obj
 0002:00002790       ??_C@_1M@PGKJFFGL@?$AAe?$AAs?$AA?9?$AAM?$AAX@ 10028790     libcpmt:winapinls.obj
 0002:0000279c       ??_C@_1M@DNNANBDC@?$AAf?$AAr?$AA?9?$AAB?$AAE@ 1002879c     libcpmt:winapinls.obj
 0002:000027a8       ??_C@_1M@HLGMDFHM@?$AAi?$AAt?$AA?9?$AAC?$AAH@ 100287a8     libcpmt:winapinls.obj
 0002:000027b4       ??_C@_1M@CLLBGJH@?$AAn?$AAl?$AA?9?$AAB?$AAE@ 100287b4     libcpmt:winapinls.obj
 0002:000027c0       ??_C@_1M@BODBOGLF@?$AAn?$AAn?$AA?9?$AAN?$AAO@ 100287c0     libcpmt:winapinls.obj
 0002:000027cc       ??_C@_1M@HFFAHKAD@?$AAp?$AAt?$AA?9?$AAP?$AAT@ 100287cc     libcpmt:winapinls.obj
 0002:000027d8       ??_C@_1BG@LNOAKHIE@?$AAs?$AAr?$AA?9?$AAS?$AAP?$AA?9?$AAL?$AAa?$AAt?$AAn@ 100287d8     libcpmt:winapinls.obj
 0002:000027f0       ??_C@_1M@HBMHBGAK@?$AAs?$AAv?$AA?9?$AAF?$AAI@ 100287f0     libcpmt:winapinls.obj
 0002:000027fc       ??_C@_1BG@DGCJGJBE@?$AAa?$AAz?$AA?9?$AAA?$AAZ?$AA?9?$AAC?$AAy?$AAr?$AAl@ 100287fc     libcpmt:winapinls.obj
 0002:00002814       ??_C@_1M@KEJDAAHB@?$AAs?$AAe?$AA?9?$AAS?$AAE@ 10028814     libcpmt:winapinls.obj
 0002:00002820       ??_C@_1M@HEIBJJAD@?$AAm?$AAs?$AA?9?$AAB?$AAN@ 10028820     libcpmt:winapinls.obj
 0002:0000282c       ??_C@_1BG@PBGJMCEM@?$AAu?$AAz?$AA?9?$AAU?$AAZ?$AA?9?$AAC?$AAy?$AAr?$AAl@ 1002882c     libcpmt:winapinls.obj
 0002:00002844       ??_C@_1O@LAOBCMDF@?$AAq?$AAu?$AAz?$AA?9?$AAE?$AAC@ 10028844     libcpmt:winapinls.obj
 0002:00002854       ??_C@_1M@POEEMAIO@?$AAa?$AAr?$AA?9?$AAE?$AAG@ 10028854     libcpmt:winapinls.obj
 0002:00002860       ??_C@_1M@EFAKDEDL@?$AAz?$AAh?$AA?9?$AAH?$AAK@ 10028860     libcpmt:winapinls.obj
 0002:0000286c       ??_C@_1M@HKKIJHGI@?$AAd?$AAe?$AA?9?$AAA?$AAT@ 1002886c     libcpmt:winapinls.obj
 0002:00002878       ??_C@_1M@KBFBEHJF@?$AAe?$AAn?$AA?9?$AAA?$AAU@ 10028878     libcpmt:winapinls.obj
 0002:00002884       ??_C@_1M@MNPLFAAH@?$AAe?$AAs?$AA?9?$AAE?$AAS@ 10028884     libcpmt:winapinls.obj
 0002:00002890       ??_C@_1M@HJOOJFMA@?$AAf?$AAr?$AA?9?$AAC?$AAA@ 10028890     libcpmt:winapinls.obj
 0002:0000289c       ??_C@_1BG@JPOFPNAB@?$AAs?$AAr?$AA?9?$AAS?$AAP?$AA?9?$AAC?$AAy?$AAr?$AAl@ 1002889c     libcpmt:winapinls.obj
 0002:000028b4       ??_C@_1M@LNFOCMOB@?$AAs?$AAe?$AA?9?$AAF?$AAI@ 100288b4     libcpmt:winapinls.obj
 0002:000028c0       ??_C@_1O@MGJBOAMB@?$AAq?$AAu?$AAz?$AA?9?$AAP?$AAE@ 100288c0     libcpmt:winapinls.obj
 0002:000028d0       ??_C@_1M@GJINLBOK@?$AAa?$AAr?$AA?9?$AAL?$AAY@ 100288d0     libcpmt:winapinls.obj
 0002:000028dc       ??_C@_1M@GGMNHJNL@?$AAz?$AAh?$AA?9?$AAS?$AAG@ 100288dc     libcpmt:winapinls.obj
 0002:000028e8       ??_C@_1M@HOIKODND@?$AAd?$AAe?$AA?9?$AAL?$AAU@ 100288e8     libcpmt:winapinls.obj
 0002:000028f4       ??_C@_1M@DDOCCGFG@?$AAe?$AAn?$AA?9?$AAC?$AAA@ 100288f4     libcpmt:winapinls.obj
 0002:00002900       ??_C@_1M@BNOEMJLF@?$AAe?$AAs?$AA?9?$AAG?$AAT@ 10028900     libcpmt:winapinls.obj
 0002:0000290c       ??_C@_1M@EOGNKEK@?$AAf?$AAr?$AA?9?$AAC?$AAH@ 1002890c     libcpmt:winapinls.obj
 0002:00002918       ??_C@_1M@FLIDJFHL@?$AAh?$AAr?$AA?9?$AAB?$AAA@ 10028918     libcpmt:winapinls.obj
 0002:00002924       ??_C@_1O@FMCELNAJ@?$AAs?$AAm?$AAj?$AA?9?$AAN?$AAO@ 10028924     libcpmt:winapinls.obj
 0002:00002934       ??_C@_1M@JHGLJMGJ@?$AAa?$AAr?$AA?9?$AAD?$AAZ@ 10028934     libcpmt:winapinls.obj
 0002:00002940       ??_C@_1M@JKKFDCNP@?$AAz?$AAh?$AA?9?$AAM?$AAO@ 10028940     libcpmt:winapinls.obj
 0002:0000294c       ??_C@_1M@GEEFALPE@?$AAd?$AAe?$AA?9?$AAL?$AAI@ 1002894c     libcpmt:winapinls.obj
 0002:00002958       ??_C@_1M@IGEOFBG@?$AAe?$AAn?$AA?9?$AAN?$AAZ@ 10028958     libcpmt:winapinls.obj
 0002:00002964       ??_C@_1M@KDBONEHP@?$AAe?$AAs?$AA?9?$AAC?$AAR@ 10028964     libcpmt:winapinls.obj
 0002:00002970       ??_C@_1M@FHMDOHNN@?$AAf?$AAr?$AA?9?$AAL?$AAU@ 10028970     libcpmt:winapinls.obj
 0002:0000297c       ??_C@_1BG@NFKKMAFG@?$AAb?$AAs?$AA?9?$AAB?$AAA?$AA?9?$AAL?$AAa?$AAt?$AAn@ 1002897c     libcpmt:winapinls.obj
 0002:00002994       ??_C@_1O@IMNBEMCI@?$AAs?$AAm?$AAj?$AA?9?$AAS?$AAE@ 10028994     libcpmt:winapinls.obj
 0002:000029a4       ??_C@_1M@DHHMBNDP@?$AAa?$AAr?$AA?9?$AAM?$AAA@ 100289a4     libcpmt:winapinls.obj
 0002:000029b0       ??_C@_1M@BNBLJCGH@?$AAe?$AAn?$AA?9?$AAI?$AAE@ 100289b0     libcpmt:winapinls.obj
 0002:000029bc       ??_C@_1M@GEPAFMDL@?$AAe?$AAs?$AA?9?$AAP?$AAA@ 100289bc     libcpmt:winapinls.obj
 0002:000029c8       ??_C@_1M@OJONDMDL@?$AAf?$AAr?$AA?9?$AAM?$AAC@ 100289c8     libcpmt:winapinls.obj
 0002:000029d4       ??_C@_1BG@OBCNFJB@?$AAs?$AAr?$AA?9?$AAB?$AAA?$AA?9?$AAL?$AAa?$AAt?$AAn@ 100289d4     libcpmt:winapinls.obj
 0002:000029ec       ??_C@_1O@KEMEEGPO@?$AAs?$AAm?$AAa?$AA?9?$AAN?$AAO@ 100289ec     libcpmt:winapinls.obj
 0002:000029fc       ??_C@_1M@ELMGFODK@?$AAa?$AAr?$AA?9?$AAT?$AAN@ 100289fc     libcpmt:winapinls.obj
 0002:00002a08       ??_C@_1M@BHDLHFAF@?$AAe?$AAn?$AA?9?$AAZ?$AAA@ 10028a08     libcpmt:winapinls.obj
 0002:00002a14       ??_C@_1M@BMGIGLIF@?$AAe?$AAs?$AA?9?$AAD?$AAO@ 10028a14     libcpmt:winapinls.obj
 0002:00002a20       ??_C@_1BG@CMBHIPBE@?$AAs?$AAr?$AA?9?$AAB?$AAA?$AA?9?$AAC?$AAy?$AAr?$AAl@ 10028a20     libcpmt:winapinls.obj
 0002:00002a38       ??_C@_1O@HEDBLHNP@?$AAs?$AAm?$AAa?$AA?9?$AAS?$AAE@ 10028a38     libcpmt:winapinls.obj
 0002:00002a48       ??_C@_1M@DAGCADIM@?$AAa?$AAr?$AA?9?$AAO?$AAM@ 10028a48     libcpmt:winapinls.obj
 0002:00002a54       ??_C@_1M@FODLMICG@?$AAe?$AAn?$AA?9?$AAJ?$AAM@ 10028a54     libcpmt:winapinls.obj
 0002:00002a60       ??_C@_1M@DNMLCIHB@?$AAe?$AAs?$AA?9?$AAV?$AAE@ 10028a60     libcpmt:winapinls.obj
 0002:00002a6c       ??_C@_1O@EOKHMKJK@?$AAs?$AAm?$AAs?$AA?9?$AAF?$AAI@ 10028a6c     libcpmt:winapinls.obj
 0002:00002a7c       ??_C@_1M@CAFJMKOF@?$AAa?$AAr?$AA?9?$AAY?$AAE@ 10028a7c     libcpmt:winapinls.obj
 0002:00002a88       ??_C@_1M@CBFHIJLI@?$AAe?$AAn?$AA?9?$AAC?$AAB@ 10028a88     libcpmt:winapinls.obj
 0002:00002a94       ??_C@_1M@BGNFLDN@?$AAe?$AAs?$AA?9?$AAC?$AAO@ 10028a94     libcpmt:winapinls.obj
 0002:00002aa0       ??_C@_1O@JMPHMAMC@?$AAs?$AAm?$AAn?$AA?9?$AAF?$AAI@ 10028aa0     libcpmt:winapinls.obj
 0002:00002ab0       ??_C@_1M@JLANABKE@?$AAa?$AAr?$AA?9?$AAS?$AAY@ 10028ab0     libcpmt:winapinls.obj
 0002:00002abc       ??_C@_1M@HPKGCFGN@?$AAe?$AAn?$AA?9?$AAB?$AAZ@ 10028abc     libcpmt:winapinls.obj
 0002:00002ac8       ??_C@_1M@OLJCMLGM@?$AAe?$AAs?$AA?9?$AAP?$AAE@ 10028ac8     libcpmt:winapinls.obj
 0002:00002ad4       ??_C@_1M@MKKGFKLE@?$AAa?$AAr?$AA?9?$AAJ?$AAO@ 10028ad4     libcpmt:winapinls.obj
 0002:00002ae0       ??_C@_1M@EKPGLDNI@?$AAe?$AAn?$AA?9?$AAT?$AAT@ 10028ae0     libcpmt:winapinls.obj
 0002:00002aec       ??_C@_1M@OONGHFHE@?$AAe?$AAs?$AA?9?$AAA?$AAR@ 10028aec     libcpmt:winapinls.obj
 0002:00002af8       ??_C@_1M@OOJFGBHE@?$AAa?$AAr?$AA?9?$AAL?$AAB@ 10028af8     libcpmt:winapinls.obj
 0002:00002b04       ??_C@_1M@GCEJHNEG@?$AAe?$AAn?$AA?9?$AAZ?$AAW@ 10028b04     libcpmt:winapinls.obj
 0002:00002b10       ??_C@_1M@JNOCAHJI@?$AAe?$AAs?$AA?9?$AAE?$AAC@ 10028b10     libcpmt:winapinls.obj
 0002:00002b1c       ??_C@_1M@JEFHPGGB@?$AAa?$AAr?$AA?9?$AAK?$AAW@ 10028b1c     libcpmt:winapinls.obj
 0002:00002b28       ??_C@_1M@MLKIBJOJ@?$AAe?$AAn?$AA?9?$AAP?$AAH@ 10028b28     libcpmt:winapinls.obj
 0002:00002b34       ??_C@_1M@BDNIPEND@?$AAe?$AAs?$AA?9?$AAC?$AAL@ 10028b34     libcpmt:winapinls.obj
 0002:00002b40       ??_C@_1M@MPNMEKBD@?$AAa?$AAr?$AA?9?$AAA?$AAE@ 10028b40     libcpmt:winapinls.obj
 0002:00002b4c       ??_C@_1M@KBJALCPI@?$AAe?$AAs?$AA?9?$AAU?$AAY@ 10028b4c     libcpmt:winapinls.obj
 0002:00002b58       ??_C@_1M@LLCCOAGA@?$AAa?$AAr?$AA?9?$AAB?$AAH@ 10028b58     libcpmt:winapinls.obj
 0002:00002b64       ??_C@_1M@PBFNCDEL@?$AAe?$AAs?$AA?9?$AAP?$AAY@ 10028b64     libcpmt:winapinls.obj
 0002:00002b70       ??_C@_1M@EDGINPNP@?$AAa?$AAr?$AA?9?$AAQ?$AAA@ 10028b70     libcpmt:winapinls.obj
 0002:00002b7c       ??_C@_1M@MKDBIIJI@?$AAe?$AAs?$AA?9?$AAB?$AAO@ 10028b7c     libcpmt:winapinls.obj
 0002:00002b88       ??_C@_1M@CPKKEBLD@?$AAe?$AAs?$AA?9?$AAS?$AAV@ 10028b88     libcpmt:winapinls.obj
 0002:00002b94       ??_C@_1M@NDBGMMJL@?$AAe?$AAs?$AA?9?$AAH?$AAN@ 10028b94     libcpmt:winapinls.obj
 0002:00002ba0       ??_C@_1M@JIJIBHDP@?$AAe?$AAs?$AA?9?$AAN?$AAI@ 10028ba0     libcpmt:winapinls.obj
 0002:00002bac       ??_C@_1M@CGFMKEEK@?$AAe?$AAs?$AA?9?$AAP?$AAR@ 10028bac     libcpmt:winapinls.obj
 0002:00002bb8       ??_C@_1O@ICJHKIIK@?$AAz?$AAh?$AA?9?$AAC?$AAH?$AAT@ 10028bb8     libcpmt:winapinls.obj
 0002:00002bc8       ??_C@_15CLNEJCE@?$AAs?$AAr@ 10028bc8     libcpmt:winapinls.obj
 0002:00002bd0       ??_C@_1M@KAHEKEIG@?$AAa?$AAf?$AA?9?$AAz?$AAa@ 10028bd0     libcpmt:winapinls.obj
 0002:00002bdc       ??_C@_1M@GIECOABL@?$AAa?$AAr?$AA?9?$AAa?$AAe@ 10028bdc     libcpmt:winapinls.obj
 0002:00002be8       ??_C@_1M@BMLMEKGI@?$AAa?$AAr?$AA?9?$AAb?$AAh@ 10028be8     libcpmt:winapinls.obj
 0002:00002bf4       ??_C@_1M@DAPFDGGB@?$AAa?$AAr?$AA?9?$AAd?$AAz@ 10028bf4     libcpmt:winapinls.obj
 0002:00002c00       ??_C@_1M@FJNKGKIG@?$AAa?$AAr?$AA?9?$AAe?$AAg@ 10028c00     libcpmt:winapinls.obj
 0002:00002c0c       ??_C@_1M@FLGKKCLO@?$AAa?$AAr?$AA?9?$AAi?$AAq@ 10028c0c     libcpmt:winapinls.obj
 0002:00002c18       ??_C@_1M@GNDIPALM@?$AAa?$AAr?$AA?9?$AAj?$AAo@ 10028c18     libcpmt:winapinls.obj
 0002:00002c24       ??_C@_1M@DDMJFMGJ@?$AAa?$AAr?$AA?9?$AAk?$AAw@ 10028c24     libcpmt:winapinls.obj
 0002:00002c30       ??_C@_1M@EJALMLHM@?$AAa?$AAr?$AA?9?$AAl?$AAb@ 10028c30     libcpmt:winapinls.obj
 0002:00002c3c       ??_C@_1M@MOBDBLOC@?$AAa?$AAr?$AA?9?$AAl?$AAy@ 10028c3c     libcpmt:winapinls.obj
 0002:00002c48       ??_C@_1M@JAOCLHDH@?$AAa?$AAr?$AA?9?$AAm?$AAa@ 10028c48     libcpmt:winapinls.obj
 0002:00002c54       ??_C@_1M@JHPMKJIE@?$AAa?$AAr?$AA?9?$AAo?$AAm@ 10028c54     libcpmt:winapinls.obj
 0002:00002c60       ??_C@_1M@OEPGHFNH@?$AAa?$AAr?$AA?9?$AAq?$AAa@ 10028c60     libcpmt:winapinls.obj
 0002:00002c6c       ??_C@_1M@KJDONENM@?$AAa?$AAr?$AA?9?$AAs?$AAa@ 10028c6c     libcpmt:winapinls.obj
 0002:00002c78       ??_C@_1M@DMJDKLKM@?$AAa?$AAr?$AA?9?$AAs?$AAy@ 10028c78     libcpmt:winapinls.obj
 0002:00002c84       ??_C@_1M@OMFIPEDC@?$AAa?$AAr?$AA?9?$AAt?$AAn@ 10028c84     libcpmt:winapinls.obj
 0002:00002c90       ??_C@_1M@IHMHGAON@?$AAa?$AAr?$AA?9?$AAy?$AAe@ 10028c90     libcpmt:winapinls.obj
 0002:00002c9c       ??_C@_1BG@KDCPGJGB@?$AAa?$AAz?$AA?9?$AAa?$AAz?$AA?9?$AAc?$AAy?$AAr?$AAl@ 10028c9c     libcpmt:winapinls.obj
 0002:00002cb4       ??_C@_1BG@IBCKDDOE@?$AAa?$AAz?$AA?9?$AAa?$AAz?$AA?9?$AAl?$AAa?$AAt?$AAn@ 10028cb4     libcpmt:winapinls.obj
 0002:00002ccc       ??_C@_1M@EGPFDCPD@?$AAb?$AAe?$AA?9?$AAb?$AAy@ 10028ccc     libcpmt:winapinls.obj
 0002:00002cd8       ??_C@_1M@PCMGMCGC@?$AAb?$AAg?$AA?9?$AAb?$AAg@ 10028cd8     libcpmt:winapinls.obj
 0002:00002ce4       ??_C@_1M@BJBMFGOB@?$AAb?$AAn?$AA?9?$AAi?$AAn@ 10028ce4     libcpmt:winapinls.obj
 0002:00002cf0       ??_C@_1BG@EAKMMACD@?$AAb?$AAs?$AA?9?$AAb?$AAa?$AA?9?$AAl?$AAa?$AAt?$AAn@ 10028cf0     libcpmt:winapinls.obj
 0002:00002d08       ??_C@_1M@KGADAODK@?$AAc?$AAa?$AA?9?$AAe?$AAs@ 10028d08     libcpmt:winapinls.obj
 0002:00002d14       ??_C@_1M@COAJPDHI@?$AAc?$AAs?$AA?9?$AAc?$AAz@ 10028d14     libcpmt:winapinls.obj
 0002:00002d20       ??_C@_1M@DHBHFONH@?$AAc?$AAy?$AA?9?$AAg?$AAb@ 10028d20     libcpmt:winapinls.obj
 0002:00002d2c       ??_C@_1M@IMGKELGA@?$AAd?$AAa?$AA?9?$AAd?$AAk@ 10028d2c     libcpmt:winapinls.obj
 0002:00002d38       ??_C@_1M@NNDGDNGA@?$AAd?$AAe?$AA?9?$AAa?$AAt@ 10028d38     libcpmt:winapinls.obj
 0002:00002d44       ??_C@_1M@IKDBHEEM@?$AAd?$AAe?$AA?9?$AAc?$AAh@ 10028d44     libcpmt:winapinls.obj
 0002:00002d50       ??_C@_1M@GFFOJMCJ@?$AAd?$AAe?$AA?9?$AAd?$AAe@ 10028d50     libcpmt:winapinls.obj
 0002:00002d5c       ??_C@_1M@MDNLKBPM@?$AAd?$AAe?$AA?9?$AAl?$AAi@ 10028d5c     libcpmt:winapinls.obj
 0002:00002d68       ??_C@_1M@NJBEEJNL@?$AAd?$AAe?$AA?9?$AAl?$AAu@ 10028d68     libcpmt:winapinls.obj
 0002:00002d74       ??_C@_1O@GNNELBAP@?$AAd?$AAi?$AAv?$AA?9?$AAm?$AAv@ 10028d74     libcpmt:winapinls.obj
 0002:00002d84       ??_C@_1M@EJLEOGAE@?$AAe?$AAl?$AA?9?$AAg?$AAr@ 10028d84     libcpmt:winapinls.obj
 0002:00002d90       ??_C@_1M@GMPONJN@?$AAe?$AAn?$AA?9?$AAa?$AAu@ 10028d90     libcpmt:winapinls.obj
 0002:00002d9c       ??_C@_1M@NIDIIPGF@?$AAe?$AAn?$AA?9?$AAb?$AAz@ 10028d9c     libcpmt:winapinls.obj
 0002:00002da8       ??_C@_1M@JEHMIMFO@?$AAe?$AAn?$AA?9?$AAc?$AAa@ 10028da8     libcpmt:winapinls.obj
 0002:00002db4       ??_C@_1M@IGMJCDLA@?$AAe?$AAn?$AA?9?$AAc?$AAb@ 10028db4     libcpmt:winapinls.obj
 0002:00002dc0       ??_C@_1M@BNFIGBKG@?$AAe?$AAn?$AA?9?$AAg?$AAb@ 10028dc0     libcpmt:winapinls.obj
 0002:00002dcc       ??_C@_1M@LKIFDIGP@?$AAe?$AAn?$AA?9?$AAi?$AAe@ 10028dcc     libcpmt:winapinls.obj
 0002:00002dd8       ??_C@_1M@PJKFGCCO@?$AAe?$AAn?$AA?9?$AAj?$AAm@ 10028dd8     libcpmt:winapinls.obj
 0002:00002de4       ??_C@_1M@KPPKEPBO@?$AAe?$AAn?$AA?9?$AAn?$AAz@ 10028de4     libcpmt:winapinls.obj
 0002:00002df0       ??_C@_1M@GMDGLDOB@?$AAe?$AAn?$AA?9?$AAp?$AAh@ 10028df0     libcpmt:winapinls.obj
 0002:00002dfc       ??_C@_1M@ONGIBJNA@?$AAe?$AAn?$AA?9?$AAt?$AAt@ 10028dfc     libcpmt:winapinls.obj
 0002:00002e08       ??_C@_1M@LLODPCMM@?$AAe?$AAn?$AA?9?$AAu?$AAs@ 10028e08     libcpmt:winapinls.obj
 0002:00002e14       ??_C@_1M@LAKFNPAN@?$AAe?$AAn?$AA?9?$AAz?$AAa@ 10028e14     libcpmt:winapinls.obj
 0002:00002e20       ??_C@_1M@MFNHNHEO@?$AAe?$AAn?$AA?9?$AAz?$AAw@ 10028e20     libcpmt:winapinls.obj
 0002:00002e2c       ??_C@_1M@EJEINPHM@?$AAe?$AAs?$AA?9?$AAa?$AAr@ 10028e2c     libcpmt:winapinls.obj
 0002:00002e38       ??_C@_1M@GNKPCCJA@?$AAe?$AAs?$AA?9?$AAb?$AAo@ 10028e38     libcpmt:winapinls.obj
 0002:00002e44       ??_C@_1M@LEEGFONL@?$AAe?$AAs?$AA?9?$AAc?$AAl@ 10028e44     libcpmt:winapinls.obj
 0002:00002e50       ??_C@_1M@KGPDPBDF@?$AAe?$AAs?$AA?9?$AAc?$AAo@ 10028e50     libcpmt:winapinls.obj
 0002:00002e5c       ??_C@_1M@EIAHOHH@?$AAe?$AAs?$AA?9?$AAc?$AAr@ 10028e5c     libcpmt:winapinls.obj
 0002:00002e68       ??_C@_1M@LLPGMBIN@?$AAe?$AAs?$AA?9?$AAd?$AAo@ 10028e68     libcpmt:winapinls.obj
 0002:00002e74       ??_C@_1M@DKHMKNJA@?$AAe?$AAs?$AA?9?$AAe?$AAc@ 10028e74     libcpmt:winapinls.obj
 0002:00002e80       ??_C@_1M@GKGFPKAP@?$AAe?$AAs?$AA?9?$AAe?$AAs@ 10028e80     libcpmt:winapinls.obj
 0002:00002e8c       ??_C@_1M@LKHKGDLN@?$AAe?$AAs?$AA?9?$AAg?$AAt@ 10028e8c     libcpmt:winapinls.obj
 0002:00002e98       ??_C@_1M@HEIIGGJD@?$AAe?$AAs?$AA?9?$AAh?$AAn@ 10028e98     libcpmt:winapinls.obj
 0002:00002ea4       ??_C@_1M@FBDHPPGD@?$AAe?$AAs?$AA?9?$AAm?$AAx@ 10028ea4     libcpmt:winapinls.obj
 0002:00002eb0       ??_C@_1M@DPAGLNDH@?$AAe?$AAs?$AA?9?$AAn?$AAi@ 10028eb0     libcpmt:winapinls.obj
 0002:00002ebc       ??_C@_1M@MDGOPGDD@?$AAe?$AAs?$AA?9?$AAp?$AAa@ 10028ebc     libcpmt:winapinls.obj
 0002:00002ec8       ??_C@_1M@EMAMGBGE@?$AAe?$AAs?$AA?9?$AAp?$AAe@ 10028ec8     libcpmt:winapinls.obj
 0002:00002ed4       ??_C@_1M@IBMCAOEC@?$AAe?$AAs?$AA?9?$AAp?$AAr@ 10028ed4     libcpmt:winapinls.obj
 0002:00002ee0       ??_C@_1M@FGMDIJED@?$AAe?$AAs?$AA?9?$AAp?$AAy@ 10028ee0     libcpmt:winapinls.obj
 0002:00002eec       ??_C@_1M@IIDEOLLL@?$AAe?$AAs?$AA?9?$AAs?$AAv@ 10028eec     libcpmt:winapinls.obj
 0002:00002ef8       ??_C@_1M@GAOBIPA@?$AAe?$AAs?$AA?9?$AAu?$AAy@ 10028ef8     libcpmt:winapinls.obj
 0002:00002f04       ??_C@_1M@JKFFICHJ@?$AAe?$AAs?$AA?9?$AAv?$AAe@ 10028f04     libcpmt:winapinls.obj
 0002:00002f10       ??_C@_1M@PNMLOJDF@?$AAe?$AAt?$AA?9?$AAe?$AAe@ 10028f10     libcpmt:winapinls.obj
 0002:00002f1c       ??_C@_1M@GHHLIKEI@?$AAe?$AAu?$AA?9?$AAe?$AAs@ 10028f1c     libcpmt:winapinls.obj
 0002:00002f28       ??_C@_1M@PBNONODE@?$AAf?$AAa?$AA?9?$AAi?$AAr@ 10028f28     libcpmt:winapinls.obj
 0002:00002f34       ??_C@_1M@JEEHPMIL@?$AAf?$AAi?$AA?9?$AAf?$AAi@ 10028f34     libcpmt:winapinls.obj
 0002:00002f40       ??_C@_1M@LMDCNDBA@?$AAf?$AAo?$AA?9?$AAf?$AAo@ 10028f40     libcpmt:winapinls.obj
 0002:00002f4c       ??_C@_1M@JKEOHLDK@?$AAf?$AAr?$AA?9?$AAb?$AAe@ 10028f4c     libcpmt:winapinls.obj
 0002:00002f58       ??_C@_1M@NOHADPMI@?$AAf?$AAr?$AA?9?$AAc?$AAa@ 10028f58     libcpmt:winapinls.obj
 0002:00002f64       ??_C@_1M@KDHIHAEC@?$AAf?$AAr?$AA?9?$AAc?$AAh@ 10028f64     libcpmt:winapinls.obj
 0002:00002f70       ??_C@_1M@MMBBFGAK@?$AAf?$AAr?$AA?9?$AAf?$AAr@ 10028f70     libcpmt:winapinls.obj
 0002:00002f7c       ??_C@_1M@PAFNENNF@?$AAf?$AAr?$AA?9?$AAl?$AAu@ 10028f7c     libcpmt:winapinls.obj
 0002:00002f88       ??_C@_1M@EOHDJGDD@?$AAf?$AAr?$AA?9?$AAm?$AAc@ 10028f88     libcpmt:winapinls.obj
 0002:00002f94       ??_C@_1M@FAPLLOPF@?$AAg?$AAl?$AA?9?$AAe?$AAs@ 10028f94     libcpmt:winapinls.obj
 0002:00002fa0       ??_C@_1M@FOPBFLOO@?$AAg?$AAu?$AA?9?$AAi?$AAn@ 10028fa0     libcpmt:winapinls.obj
 0002:00002fac       ??_C@_1M@KBMCINPM@?$AAh?$AAe?$AA?9?$AAi?$AAl@ 10028fac     libcpmt:winapinls.obj
 0002:00002fb8       ??_C@_1M@BBPHKFPJ@?$AAh?$AAi?$AA?9?$AAi?$AAn@ 10028fb8     libcpmt:winapinls.obj
 0002:00002fc4       ??_C@_1M@PMBNDPHD@?$AAh?$AAr?$AA?9?$AAb?$AAa@ 10028fc4     libcpmt:winapinls.obj
 0002:00002fd0       ??_C@_1M@BPCKOEGE@?$AAh?$AAr?$AA?9?$AAh?$AAr@ 10028fd0     libcpmt:winapinls.obj
 0002:00002fdc       ??_C@_1M@GACBMHKE@?$AAh?$AAu?$AA?9?$AAh?$AAu@ 10028fdc     libcpmt:winapinls.obj
 0002:00002fe8       ??_C@_1M@MILPAJJC@?$AAh?$AAy?$AA?9?$AAa?$AAm@ 10028fe8     libcpmt:winapinls.obj
 0002:00002ff4       ??_C@_1M@BABBICEC@?$AAi?$AAd?$AA?9?$AAi?$AAd@ 10028ff4     libcpmt:winapinls.obj
 0002:00003000       ??_C@_1M@BIKNHHPF@?$AAi?$AAs?$AA?9?$AAi?$AAs@ 10029000     libcpmt:winapinls.obj
 0002:0000300c       ??_C@_1M@NMPCJPHE@?$AAi?$AAt?$AA?9?$AAc?$AAh@ 1002900c     libcpmt:winapinls.obj
 0002:00003018       ??_C@_1M@GHKGFEDF@?$AAi?$AAt?$AA?9?$AAi?$AAt@ 10029018     libcpmt:winapinls.obj
 0002:00003024       ??_C@_1M@NIEJCJJA@?$AAj?$AAa?$AA?9?$AAj?$AAp@ 10029024     libcpmt:winapinls.obj
 0002:00003030       ??_C@_1M@JILFNBIM@?$AAk?$AAa?$AA?9?$AAg?$AAe@ 10029030     libcpmt:winapinls.obj
 0002:0000303c       ??_C@_1M@PACPMGPH@?$AAk?$AAk?$AA?9?$AAk?$AAz@ 1002903c     libcpmt:winapinls.obj
 0002:00003048       ??_C@_1M@IELFGMHA@?$AAk?$AAn?$AA?9?$AAi?$AAn@ 10029048     libcpmt:winapinls.obj
 0002:00003054       ??_C@_1M@DMHAEOGC@?$AAk?$AAo?$AA?9?$AAk?$AAr@ 10029054     libcpmt:winapinls.obj
 0002:00003060       ??_C@_1O@IBBJHCH@?$AAk?$AAo?$AAk?$AA?9?$AAi?$AAn@ 10029060     libcpmt:winapinls.obj
 0002:00003070       ??_C@_1M@HBAHBIGA@?$AAk?$AAy?$AA?9?$AAk?$AAg@ 10029070     libcpmt:winapinls.obj
 0002:0000307c       ??_C@_1M@KPMILCJG@?$AAl?$AAt?$AA?9?$AAl?$AAt@ 1002907c     libcpmt:winapinls.obj
 0002:00003088       ??_C@_1M@BDEKKCA@?$AAl?$AAv?$AA?9?$AAl?$AAv@ 10029088     libcpmt:winapinls.obj
 0002:00003094       ??_C@_1M@ELCKCCJJ@?$AAm?$AAi?$AA?9?$AAn?$AAz@ 10029094     libcpmt:winapinls.obj
 0002:000030a0       ??_C@_1M@CBOOLAPA@?$AAm?$AAk?$AA?9?$AAm?$AAk@ 100290a0     libcpmt:winapinls.obj
 0002:000030ac       ??_C@_1M@GPHNBJKN@?$AAm?$AAl?$AA?9?$AAi?$AAn@ 100290ac     libcpmt:winapinls.obj
 0002:000030b8       ??_C@_1M@PABJILIG@?$AAm?$AAn?$AA?9?$AAm?$AAn@ 100290b8     libcpmt:winapinls.obj
 0002:000030c4       ??_C@_1M@FGBKKIPG@?$AAm?$AAr?$AA?9?$AAi?$AAn@ 100290c4     libcpmt:winapinls.obj
 0002:000030d0       ??_C@_1M@NDBPDDAL@?$AAm?$AAs?$AA?9?$AAb?$AAn@ 100290d0     libcpmt:winapinls.obj
 0002:000030dc       ??_C@_1M@OPIHOOPI@?$AAm?$AAs?$AA?9?$AAm?$AAy@ 100290dc     libcpmt:winapinls.obj
 0002:000030e8       ??_C@_1M@PPDBCNFM@?$AAm?$AAt?$AA?9?$AAm?$AAt@ 100290e8     libcpmt:winapinls.obj
 0002:000030f4       ??_C@_1M@KDJDKMDD@?$AAn?$AAb?$AA?9?$AAn?$AAo@ 100290f4     libcpmt:winapinls.obj
 0002:00003100       ??_C@_1M@KFCFLMJP@?$AAn?$AAl?$AA?9?$AAb?$AAe@ 10029100     libcpmt:winapinls.obj
 0002:0000310c       ??_C@_1M@KPOPDDGO@?$AAn?$AAl?$AA?9?$AAn?$AAl@ 1002910c     libcpmt:winapinls.obj
 0002:00003118       ??_C@_1M@LJKPEMLN@?$AAn?$AAn?$AA?9?$AAn?$AAo@ 10029118     libcpmt:winapinls.obj
 0002:00003124       ??_C@_1M@BDGHHBFL@?$AAn?$AAs?$AA?9?$AAz?$AAa@ 10029124     libcpmt:winapinls.obj
 0002:00003130       ??_C@_1M@IDEHOAP@?$AAp?$AAa?$AA?9?$AAi?$AAn@ 10029130     libcpmt:winapinls.obj
 0002:0000313c       ??_C@_1M@HDBKGOGH@?$AAp?$AAl?$AA?9?$AAp?$AAl@ 1002913c     libcpmt:winapinls.obj
 0002:00003148       ??_C@_1M@LJLLCMEH@?$AAp?$AAt?$AA?9?$AAb?$AAr@ 10029148     libcpmt:winapinls.obj
 0002:00003154       ??_C@_1M@NCMONAAL@?$AAp?$AAt?$AA?9?$AAp?$AAt@ 10029154     libcpmt:winapinls.obj
 0002:00003160       ??_C@_1O@EAKMAJDN@?$AAq?$AAu?$AAz?$AA?9?$AAb?$AAo@ 10029160     libcpmt:winapinls.obj
 0002:00003170       ??_C@_1O@BHHPIGDN@?$AAq?$AAu?$AAz?$AA?9?$AAe?$AAc@ 10029170     libcpmt:winapinls.obj
 0002:00003180       ??_C@_1O@GBAPEKMJ@?$AAq?$AAu?$AAz?$AA?9?$AAp?$AAe@ 10029180     libcpmt:winapinls.obj
 0002:00003190       ??_C@_1M@CLGLEFBO@?$AAr?$AAo?$AA?9?$AAr?$AAo@ 10029190     libcpmt:winapinls.obj
 0002:0000319c       ??_C@_1M@CEEDODME@?$AAr?$AAu?$AA?9?$AAr?$AAu@ 1002919c     libcpmt:winapinls.obj
 0002:000031a8       ??_C@_1M@HPKKKMPP@?$AAs?$AAa?$AA?9?$AAi?$AAn@ 100291a8     libcpmt:winapinls.obj
 0002:000031b4       ??_C@_1M@BKMAIGOJ@?$AAs?$AAe?$AA?9?$AAf?$AAi@ 100291b4     libcpmt:winapinls.obj
 0002:000031c0       ??_C@_1M@NDPIFLFI@?$AAs?$AAe?$AA?9?$AAn?$AAo@ 100291c0     libcpmt:winapinls.obj
 0002:000031cc       ??_C@_1M@DANKKHJ@?$AAs?$AAe?$AA?9?$AAs?$AAe@ 100291cc     libcpmt:winapinls.obj
 0002:000031d8       ??_C@_1M@PNBLONPJ@?$AAs?$AAk?$AA?9?$AAs?$AAk@ 100291d8     libcpmt:winapinls.obj
 0002:000031e4       ??_C@_1M@LFMODOAL@?$AAs?$AAl?$AA?9?$AAs?$AAi@ 100291e4     libcpmt:winapinls.obj
 0002:000031f0       ??_C@_1O@DFKOMPG@?$AAs?$AAm?$AAa?$AA?9?$AAn?$AAo@ 100291f0     libcpmt:winapinls.obj
 0002:00003200       ??_C@_1O@NDKPBNNH@?$AAs?$AAm?$AAa?$AA?9?$AAs?$AAe@ 10029200     libcpmt:winapinls.obj
 0002:00003210       ??_C@_1O@PLLKBHAB@?$AAs?$AAm?$AAj?$AA?9?$AAn?$AAo@ 10029210     libcpmt:winapinls.obj
 0002:00003220       ??_C@_1O@CLEPOGCA@?$AAs?$AAm?$AAj?$AA?9?$AAs?$AAe@ 10029220     libcpmt:winapinls.obj
 0002:00003230       ??_C@_1O@DLGJGKMK@?$AAs?$AAm?$AAn?$AA?9?$AAf?$AAi@ 10029230     libcpmt:winapinls.obj
 0002:00003240       ??_C@_1O@OJDJGAJC@?$AAs?$AAm?$AAs?$AA?9?$AAf?$AAi@ 10029240     libcpmt:winapinls.obj
 0002:00003250       ??_C@_1M@BOFOGHPB@?$AAs?$AAq?$AA?9?$AAa?$AAl@ 10029250     libcpmt:winapinls.obj
 0002:0000325c       ??_C@_1BG@LJBBIPGB@?$AAs?$AAr?$AA?9?$AAb?$AAa?$AA?9?$AAc?$AAy?$AAr?$AAl@ 1002925c     libcpmt:winapinls.obj
 0002:00003274       ??_C@_1BG@JLBENFOE@?$AAs?$AAr?$AA?9?$AAb?$AAa?$AA?9?$AAl?$AAa?$AAt?$AAn@ 10029274     libcpmt:winapinls.obj
 0002:0000328c       ??_C@_1BG@KODPNHE@?$AAs?$AAr?$AA?9?$AAs?$AAp?$AA?9?$AAc?$AAy?$AAr?$AAl@ 1002928c     libcpmt:winapinls.obj
 0002:000032a4       ??_C@_1BG@CIOGKHPB@?$AAs?$AAr?$AA?9?$AAs?$AAp?$AA?9?$AAl?$AAa?$AAt?$AAn@ 100292a4     libcpmt:winapinls.obj
 0002:000032bc       ??_C@_1M@NGFJLMAC@?$AAs?$AAv?$AA?9?$AAf?$AAi@ 100292bc     libcpmt:winapinls.obj
 0002:000032c8       ??_C@_1M@MPJEJAJC@?$AAs?$AAv?$AA?9?$AAs?$AAe@ 100292c8     libcpmt:winapinls.obj
 0002:000032d4       ??_C@_1M@MPNDHLFK@?$AAs?$AAw?$AA?9?$AAk?$AAe@ 100292d4     libcpmt:winapinls.obj
 0002:000032e0       ??_C@_1O@KOHBJJI@?$AAs?$AAy?$AAr?$AA?9?$AAs?$AAy@ 100292e0     libcpmt:winapinls.obj
 0002:000032f0       ??_C@_1M@LDCEFHA@?$AAt?$AAa?$AA?9?$AAi?$AAn@ 100292f0     libcpmt:winapinls.obj
 0002:000032fc       ??_C@_1M@CNJOFAK@?$AAt?$AAe?$AA?9?$AAi?$AAn@ 100292fc     libcpmt:winapinls.obj
 0002:00003308       ??_C@_1M@GNAECACD@?$AAt?$AAh?$AA?9?$AAt?$AAh@ 10029308     libcpmt:winapinls.obj
 0002:00003314       ??_C@_1M@CHBIHOJO@?$AAt?$AAn?$AA?9?$AAz?$AAa@ 10029314     libcpmt:winapinls.obj
 0002:00003320       ??_C@_1M@GCCMIGPJ@?$AAt?$AAr?$AA?9?$AAt?$AAr@ 10029320     libcpmt:winapinls.obj
 0002:0000332c       ??_C@_1M@CELMCNBK@?$AAt?$AAt?$AA?9?$AAr?$AAu@ 1002932c     libcpmt:winapinls.obj
 0002:00003338       ??_C@_1M@KLMCELGA@?$AAu?$AAk?$AA?9?$AAu?$AAa@ 10029338     libcpmt:winapinls.obj
 0002:00003344       ??_C@_1M@EPAJJAJF@?$AAu?$AAr?$AA?9?$AAp?$AAk@ 10029344     libcpmt:winapinls.obj
 0002:00003350       ??_C@_1BG@GEGPMCDJ@?$AAu?$AAz?$AA?9?$AAu?$AAz?$AA?9?$AAc?$AAy?$AAr?$AAl@ 10029350     libcpmt:winapinls.obj
 0002:00003368       ??_C@_1BG@EGGKJILM@?$AAu?$AAz?$AA?9?$AAu?$AAz?$AA?9?$AAl?$AAa?$AAt?$AAn@ 10029368     libcpmt:winapinls.obj
 0002:00003380       ??_C@_1M@GFOCLFF@?$AAv?$AAi?$AA?9?$AAv?$AAn@ 10029380     libcpmt:winapinls.obj
 0002:0000338c       ??_C@_1M@CPAMEDFI@?$AAx?$AAh?$AA?9?$AAz?$AAa@ 1002938c     libcpmt:winapinls.obj
 0002:00003398       ??_C@_1O@EBKIFIGN@?$AAz?$AAh?$AA?9?$AAc?$AAh?$AAs@ 10029398     libcpmt:winapinls.obj
 0002:000033a8       ??_C@_1O@NMHPGANE@?$AAz?$AAh?$AA?9?$AAc?$AAh?$AAt@ 100293a8     libcpmt:winapinls.obj
 0002:000033b8       ??_C@_1M@LPINJOMC@?$AAz?$AAh?$AA?9?$AAc?$AAn@ 100293b8     libcpmt:winapinls.obj
 0002:000033c4       ??_C@_1M@OCJEJODD@?$AAz?$AAh?$AA?9?$AAh?$AAk@ 100293c4     libcpmt:winapinls.obj
 0002:000033d0       ??_C@_1M@DNDLJINH@?$AAz?$AAh?$AA?9?$AAm?$AAo@ 100293d0     libcpmt:winapinls.obj
 0002:000033dc       ??_C@_1M@MBFDNDND@?$AAz?$AAh?$AA?9?$AAs?$AAg@ 100293dc     libcpmt:winapinls.obj
 0002:000033e8       ??_C@_1M@IMEPLEPE@?$AAz?$AAh?$AA?9?$AAt?$AAw@ 100293e8     libcpmt:winapinls.obj
 0002:000033f4       ??_C@_1M@BBGHNHJP@?$AAz?$AAu?$AA?9?$AAz?$AAa@ 100293f4     libcpmt:winapinls.obj
 0002:00003404       ??_7type_info@@6B@         10029404     LIBCMT:std_type_info_static.obj
 0002:00003408       __pDefaultRawDllMain       10029408     LIBCMT:dll_dllmain.obj
 0002:00003408       __pRawDllMain              10029408     LIBCMT:dll_dllmain.obj
 0002:00003418       ??_7bad_array_new_length@std@@6B@ 10029418     LIBCMT:throw_bad_alloc.obj
 0002:00003420       ??_C@_0BF@KINCDENJ@bad?5array?5new?5length@ 10029420     LIBCMT:throw_bad_alloc.obj
 0002:00003458       __pDestructExceptionObject 10029458     libvcruntime:ehhelpers.obj
 0002:00003460       ??_7bad_exception@std@@6B@ 10029460     libvcruntime:frame.obj
 0002:00003468       ??_C@_0O@DPKOEFFH@bad?5exception@ 10029468     libvcruntime:frame.obj
 0002:00003484       ??_C@_1DM@KHCHBNEB@?$AAa?$AAp?$AAi?$AA?9?$AAm?$AAs?$AA?9?$AAw?$AAi?$AAn?$AA?9?$AAc?$AAo?$AAr?$AAe@ 10029484     libvcruntime:winapi_downlevel.obj
 0002:000034c0       ??_C@_1DK@LPPGFMPP@?$AAa?$AAp?$AAi?$AA?9?$AAm?$AAs?$AA?9?$AAw?$AAi?$AAn?$AA?9?$AAc?$AAo?$AAr?$AAe@ 100294c0     libvcruntime:winapi_downlevel.obj
 0002:000034fc       ??_C@_1BC@GDMECMAK@?$AAk?$AAe?$AAr?$AAn?$AAe?$AAl?$AA3?$AA2@ 100294fc     libvcruntime:winapi_downlevel.obj
 0002:00003510       ??_C@_1BA@PFFKHIOG@?$AAa?$AAp?$AAi?$AA?9?$AAm?$AAs?$AA?9@ 10029510     libvcruntime:winapi_downlevel.obj
 0002:00003520       ??_C@_1BA@IAIFMGEF@?$AAe?$AAx?$AAt?$AA?9?$AAm?$AAs?$AA?9@ 10029520     libvcruntime:winapi_downlevel.obj
 0002:000036f4       ??_C@_08EHJDFFNH@__based?$CI@ 100296f4     libvcruntime:undname.obj
 0002:00003700       ??_C@_07KOLFKCDI@__cdecl@  10029700     libvcruntime:undname.obj
 0002:00003708       ??_C@_08GHMPAG@__pascal@   10029708     libvcruntime:undname.obj
 0002:00003714       ??_C@_09IFJBGAPI@__stdcall@ 10029714     libvcruntime:undname.obj
 0002:00003720       ??_C@_0L@NPHFGOKO@__thiscall@ 10029720     libvcruntime:undname.obj
 0002:0000372c       ??_C@_0L@JMKHOMEK@__fastcall@ 1002972c     libvcruntime:undname.obj
 0002:00003738       ??_C@_0N@BCKKPABJ@__vectorcall@ 10029738     libvcruntime:undname.obj
 0002:00003748       ??_C@_09HIJEGCPM@__clrcall@ 10029748     libvcruntime:undname.obj
 0002:00003754       ??_C@_06GHPCKEAG@__eabi@   10029754     libvcruntime:undname.obj
 0002:0000375c       ??_C@_09IOPIDJLG@__swift_1@ 1002975c     libvcruntime:undname.obj
 0002:00003768       ??_C@_09KFNFGKHF@__swift_2@ 10029768     libvcruntime:undname.obj
 0002:00003774       ??_C@_07JOMMBBKO@__ptr64@  10029774     libvcruntime:undname.obj
 0002:0000377c       ??_C@_0L@PILCLIHE@__restrict@ 1002977c     libvcruntime:undname.obj
 0002:00003788       ??_C@_0M@GFIIJFMG@__unaligned@ 10029788     libvcruntime:undname.obj
 0002:00003794       ??_C@_09DHDLOLLB@restrict?$CI@ 10029794     libvcruntime:undname.obj
 0002:000037a0       ??_C@_04NIHEBCM@?5new@     100297a0     libvcruntime:undname.obj
 0002:000037a8       ??_C@_07FPCDHGMM@?5delete@ 100297a8     libvcruntime:undname.obj
 0002:000037b0       ??_C@_01NEMOKFLO@?$DN@     100297b0     libvcruntime:undname.obj
 0002:000037b4       ??_C@_02GPIOPFAK@?$DO?$DO@ 100297b4     libvcruntime:undname.obj
 0002:000037b8       ??_C@_02FODMEDOG@?$DM?$DM@ 100297b8     libvcruntime:undname.obj
 0002:000037bc       ??_C@_01DCLJPIOD@?$CB@     100297bc     libvcruntime:undname.obj
 0002:000037c0       ??_C@_02EGOFBIJA@?$DN?$DN@ 100297c0     libvcruntime:undname.obj
 0002:000037c4       ??_C@_02FDNJECIE@?$CB?$DN@ 100297c4     libvcruntime:undname.obj
 0002:000037c8       ??_C@_02GPECMEKF@?$FL?$FN@ 100297c8     libvcruntime:undname.obj
 0002:000037cc       ??_C@_08LHJFAFGD@operator@ 100297cc     libvcruntime:undname.obj
 0002:000037d8       ??_C@_02HBOOOICD@?9?$DO@   100297d8     libvcruntime:undname.obj
 0002:000037dc       ??_C@_02ECNGHCIF@?$CL?$CL@ 100297dc     libvcruntime:undname.obj
 0002:000037e0       ??_C@_02BAABKJLB@?9?9@     100297e0     libvcruntime:undname.obj
 0002:000037e4       ??_C@_01MIFGBAGJ@?$CL@     100297e4     libvcruntime:undname.obj
 0002:000037e8       ??_C@_01HNPIGOCE@?$CG@     100297e8     libvcruntime:undname.obj
 0002:000037ec       ??_C@_03MNHNFDLC@?9?$DO?$CK@ 100297ec     libvcruntime:undname.obj
 0002:000037f0       ??_C@_01KMDKNFGN@?1@       100297f0     libvcruntime:undname.obj
 0002:000037f4       ??_C@_01FGNFDNOH@?$CF@     100297f4     libvcruntime:undname.obj
 0002:000037f8       ??_C@_01MNNFJEPP@?$DM@     100297f8     libvcruntime:undname.obj
 0002:000037fc       ??_C@_02EHCHHCKH@?$DM?$DN@ 100297fc     libvcruntime:undname.obj
 0002:00003800       ??_C@_01PPODPGHN@?$DO@     10029800     libvcruntime:undname.obj
 0002:00003804       ??_C@_02EEKDKGMJ@?$DO?$DN@ 10029804     libvcruntime:undname.obj
 0002:00003808       ??_C@_01IHBHIGKO@?0@       10029808     libvcruntime:undname.obj
 0002:0000380c       ??_C@_02HCKGKOFO@?$CI?$CJ@ 1002980c     libvcruntime:undname.obj
 0002:00003810       ??_C@_01PJKLJHI@?$HO@      10029810     libvcruntime:undname.obj
 0002:00003814       ??_C@_01JKBOJNNK@?$FO@     10029814     libvcruntime:undname.obj
 0002:00003818       ??_C@_01DNKMNLPK@?$HM@     10029818     libvcruntime:undname.obj
 0002:0000381c       ??_C@_02PPKAJPJL@?$CG?$CG@ 1002981c     libvcruntime:undname.obj
 0002:00003820       ??_C@_02NONPIBCD@?$HM?$HM@ 10029820     libvcruntime:undname.obj
 0002:00003824       ??_C@_02FPIMKNGF@?$CK?$DN@ 10029824     libvcruntime:undname.obj
 0002:00003828       ??_C@_02FOEOMHFC@?$CL?$DN@ 10029828     libvcruntime:undname.obj
 0002:0000382c       ??_C@_02FKMDLLOA@?9?$DN@   1002982c     libvcruntime:undname.obj
 0002:00003830       ??_C@_02FJEHGPIO@?1?$DN@   10029830     libvcruntime:undname.obj
 0002:00003834       ??_C@_02FENAOKFI@?$CF?$DN@ 10029834     libvcruntime:undname.obj
 0002:00003838       ??_C@_03IKFCCPFF@?$DO?$DO?$DN@ 10029838     libvcruntime:undname.obj
 0002:0000383c       ??_C@_03CDNPDDLA@?$DM?$DM?$DN@ 1002983c     libvcruntime:undname.obj
 0002:00003840       ??_C@_02FGJGFEAB@?$CG?$DN@ 10029840     libvcruntime:undname.obj
 0002:00003844       ??_C@_02DHLNPPGH@?$HM?$DN@ 10029844     libvcruntime:undname.obj
 0002:00003848       ??_C@_02MHEGNOJ@?$FO?$DN@  10029848     libvcruntime:undname.obj
 0002:0000384c       ??_C@_09IFPLHPGF@?$GAvftable?8@ 1002984c     libvcruntime:undname.obj
 0002:00003858       ??_C@_09BLBHBJP@?$GAvbtable?8@ 10029858     libvcruntime:undname.obj
 0002:00003864       ??_C@_07FEEIOKP@?$GAvcall?8@ 10029864     libvcruntime:undname.obj
 0002:0000386c       ??_C@_08LLFFHHDJ@?$GAtypeof?8@ 1002986c     libvcruntime:undname.obj
 0002:00003878       ??_C@_0BF@KDPPACIK@?$GAlocal?5static?5guard?8@ 10029878     libvcruntime:undname.obj
 0002:00003890       ??_C@_08OBABFOLI@?$GAstring?8@ 10029890     libvcruntime:undname.obj
 0002:0000389c       ??_C@_0BD@JDLKDPAB@?$GAvbase?5destructor?8@ 1002989c     libvcruntime:undname.obj
 0002:000038b0       ??_C@_0BN@DEGPLNFK@?$GAvector?5deleting?5destructor?8@ 100298b0     libvcruntime:undname.obj
 0002:000038d0       ??_C@_0BO@OBMKPJIG@?$GAdefault?5constructor?5closure?8@ 100298d0     libvcruntime:undname.obj
 0002:000038f0       ??_C@_0BN@IMDCHIKM@?$GAscalar?5deleting?5destructor?8@ 100298f0     libvcruntime:undname.obj
 0002:00003910       ??_C@_0BO@PFGOCPJJ@?$GAvector?5constructor?5iterator?8@ 10029910     libvcruntime:undname.obj
 0002:00003930       ??_C@_0BN@LFPFMEDL@?$GAvector?5destructor?5iterator?8@ 10029930     libvcruntime:undname.obj
 0002:00003950       ??_C@_0CE@IKBNEHA@?$GAvector?5vbase?5constructor?5itera@ 10029950     libvcruntime:undname.obj
 0002:00003974       ??_C@_0BL@NILFHHPC@?$GAvirtual?5displacement?5map?8@ 10029974     libvcruntime:undname.obj
 0002:00003990       ??_C@_0CB@JONCMFFK@?$GAeh?5vector?5constructor?5iterator@ 10029990     libvcruntime:undname.obj
 0002:000039b4       ??_C@_0CA@GCEOPDGL@?$GAeh?5vector?5destructor?5iterator?8@ 100299b4     libvcruntime:undname.obj
 0002:000039d4       ??_C@_0CH@OOJPLCPH@?$GAeh?5vector?5vbase?5constructor?5it@ 100299d4     libvcruntime:undname.obj
 0002:000039fc       ??_C@_0BL@LLKPOHJI@?$GAcopy?5constructor?5closure?8@ 100299fc     libvcruntime:undname.obj
 0002:00003a18       ??_C@_0BA@KBCDOMBN@?$GAudt?5returning?8@ 10029a18     libvcruntime:undname.obj
 0002:00003a28       ??_C@_03KLGMFNMG@?$GAEH@   10029a28     libvcruntime:undname.obj
 0002:00003a2c       ??_C@_05KHLCHHI@?$GARTTI@  10029a2c     libvcruntime:undname.obj
 0002:00003a34       ??_C@_0BA@KKLDJDLB@?$GAlocal?5vftable?8@ 10029a34     libvcruntime:undname.obj
 0002:00003a44       ??_C@_0CE@IIHCMGGL@?$GAlocal?5vftable?5constructor?5clos@ 10029a44     libvcruntime:undname.obj
 0002:00003a68       ??_C@_06FHBGPFGH@?5new?$FL?$FN@ 10029a68     libvcruntime:undname.obj
 0002:00003a70       ??_C@_09LBNFPBCA@?5delete?$FL?$FN@ 10029a70     libvcruntime:undname.obj
 0002:00003a7c       ??_C@_0P@HJKNJFNN@?$GAomni?5callsig?8@ 10029a7c     libvcruntime:undname.obj
 0002:00003a8c       ??_C@_0BL@CNOONJFP@?$GAplacement?5delete?5closure?8@ 10029a8c     libvcruntime:undname.obj
 0002:00003aa8       ??_C@_0BN@CKNJLHMB@?$GAplacement?5delete?$FL?$FN?5closure?8@ 10029aa8     libvcruntime:undname.obj
 0002:00003ac8       ??_C@_0CG@CFDHKGGD@?$GAmanaged?5vector?5constructor?5ite@ 10029ac8     libvcruntime:undname.obj
 0002:00003af0       ??_C@_0CF@IMGKMJNO@?$GAmanaged?5vector?5destructor?5iter@ 10029af0     libvcruntime:undname.obj
 0002:00003b18       ??_C@_0CG@HLDDJMAG@?$GAeh?5vector?5copy?5constructor?5ite@ 10029b18     libvcruntime:undname.obj
 0002:00003b40       ??_C@_0CM@FCBBDIGB@?$GAeh?5vector?5vbase?5copy?5construct@ 10029b40     libvcruntime:undname.obj
 0002:00003b6c       ??_C@_0BL@CLIPGLGB@?$GAdynamic?5initializer?5for?5?8@ 10029b6c     libvcruntime:undname.obj
 0002:00003b88       ??_C@_0CB@PDBIFEP@?$GAdynamic?5atexit?5destructor?5for?5@ 10029b88     libvcruntime:undname.obj
 0002:00003bac       ??_C@_0CD@CGAJBKEJ@?$GAvector?5copy?5constructor?5iterat@ 10029bac     libvcruntime:undname.obj
 0002:00003bd0       ??_C@_0CJ@GJELGAMM@?$GAvector?5vbase?5copy?5constructor?5@ 10029bd0     libvcruntime:undname.obj
 0002:00003bfc       ??_C@_0CL@FGIJHLCE@?$GAmanaged?5vector?5copy?5constructo@ 10029bfc     libvcruntime:undname.obj
 0002:00003c28       ??_C@_0BM@PMGGMLDN@?$GAlocal?5static?5thread?5guard?8@ 10029c28     libvcruntime:undname.obj
 0002:00003c44       ??_C@_0N@BDNMDMOL@operator?5?$CC?$CC?5@ 10029c44     libvcruntime:undname.obj
 0002:00003c54       ??_C@_0BC@GGEBGALA@operator?5co_await@ 10029c54     libvcruntime:undname.obj
 0002:00003c68       ??_C@_0BC@DAFEJGAK@?5Type?5Descriptor?8@ 10029c68     libvcruntime:undname.obj
 0002:00003c7c       ??_C@_0BM@LDKODKLH@?5Base?5Class?5Descriptor?5at?5?$CI@ 10029c7c     libvcruntime:undname.obj
 0002:00003c98       ??_C@_0BD@LGICGFMM@?5Base?5Class?5Array?8@ 10029c98     libvcruntime:undname.obj
 0002:00003cac       ??_C@_0BN@MECKDCOJ@?5Class?5Hierarchy?5Descriptor?8@ 10029cac     libvcruntime:undname.obj
 0002:00003ccc       ??_C@_0BK@CFCOFLF@?5Complete?5Object?5Locator?8@ 10029ccc     libvcruntime:undname.obj
 0002:00003ce8       _standard_lookup_table     10029ce8     libucrt:output.obj
 0002:00003d48       _format_validation_lookup_table 10029d48     libucrt:output.obj
 0002:00003da4       ??_C@_1O@CEDCILHN@?$AA?$CI?$AAn?$AAu?$AAl?$AAl?$AA?$CJ?$AA?$AA@ 10029da4     libucrt:output.obj
 0002:00003db4       ??_C@_06OJHGLDPL@?$CInull?$CJ?$AA@ 10029db4     libucrt:output.obj
 0002:00003dc0       __real@3ff0000000000000    10029dc0     libucrt:frexp.obj
 0002:00003dc8       __real@8000000000000000    10029dc8     libucrt:frexp.obj
 0002:00003dd0       ??_C@_1FE@LHBLIKM@?$AAA?$AAs?$AAs?$AAe?$AAr?$AAt?$AAi?$AAo?$AAn?$AA?5?$AAf?$AAa?$AAi?$AAl?$AAe?$AAd?$AA?3?$AA?5?$AA?$CF?$AAT?$AAs?$AA?0?$AA?5?$AAf?$AAi?$AAl?$AAe?$AA?5?$AA?$CF?$AAT?$AAs?$AA?0@ 10029dd0     libucrt:assert.obj
 0002:00003e28       ??_C@_1EK@MBDPDCGA@?$AAM?$AAi?$AAc?$AAr?$AAo?$AAs?$AAo?$AAf?$AAt?$AA?5?$AAV?$AAi?$AAs?$AAu?$AAa?$AAl?$AA?5?$AAC?$AA?$CL?$AA?$CL?$AA?5?$AAR?$AAu?$AAn?$AAt?$AAi?$AAm?$AAe?$AA?5?$AAL?$AAi?$AAb@ 10029e28     libucrt:assert.obj
 0002:00003e74       ??_C@_1CE@OJBNHDMO@?$AAA?$AAs?$AAs?$AAe?$AAr?$AAt?$AAi?$AAo?$AAn?$AA?5?$AAf?$AAa?$AAi?$AAl?$AAe?$AAd?$AA?$CB?$AA?$AA@ 10029e74     libucrt:assert.obj
 0002:00003e98       ??_C@_1BE@PHKBBGE@?$AAP?$AAr?$AAo?$AAg?$AAr?$AAa?$AAm?$AA?3?$AA?5?$AA?$AA@ 10029e98     libucrt:assert.obj
 0002:00003eac       ??_C@_1O@HEMHKNDC@?$AAF?$AAi?$AAl?$AAe?$AA?3?$AA?5?$AA?$AA@ 10029eac     libucrt:assert.obj
 0002:00003ebc       ??_C@_1O@KCAFKHJE@?$AAL?$AAi?$AAn?$AAe?$AA?3?$AA?5?$AA?$AA@ 10029ebc     libucrt:assert.obj
 0002:00003ecc       ??_C@_1BK@PEDCIPMA@?$AAE?$AAx?$AAp?$AAr?$AAe?$AAs?$AAs?$AAi?$AAo?$AAn?$AA?3?$AA?5?$AA?$AA@ 10029ecc     libucrt:assert.obj
 0002:00003ee8       ??_C@_1OA@EGMLFBHJ@?$AAF?$AAo?$AAr?$AA?5?$AAi?$AAn?$AAf?$AAo?$AAr?$AAm?$AAa?$AAt?$AAi?$AAo?$AAn?$AA?5?$AAo?$AAn?$AA?5?$AAh?$AAo?$AAw?$AA?5?$AAy?$AAo?$AAu?$AAr?$AA?5?$AAp?$AAr?$AAo?$AAg@ 10029ee8     libucrt:assert.obj
 0002:00003fc8       ??_C@_1HK@POCJMFGK@?$AA?$CI?$AAP?$AAr?$AAe?$AAs?$AAs?$AA?5?$AAR?$AAe?$AAt?$AAr?$AAy?$AA?5?$AAt?$AAo?$AA?5?$AAd?$AAe?$AAb?$AAu?$AAg?$AA?5?$AAt?$AAh?$AAe?$AA?5?$AAa?$AAp?$AAp?$AAl?$AAi?$AAc@ 10029fc8     libucrt:assert.obj
 0002:00004044       ??_C@_17LGKOMLJ@?$AA?4?$AA?4?$AA?4?$AA?$AA@ 1002a044     libucrt:assert.obj
 0002:0000404c       ??_C@_13LBAGMAIH@?$AA?6?$AA?$AA@ 1002a04c     libucrt:assert.obj
 0002:00004050       ??_C@_15IABLJNFO@?$AA?6?$AA?6?$AA?$AA@ 1002a050     libucrt:assert.obj
 0002:00004058       ??_C@_1CO@EAEJAADC@?$AA?$DM?$AAp?$AAr?$AAo?$AAg?$AAr?$AAa?$AAm?$AA?5?$AAn?$AAa?$AAm?$AAe?$AA?5?$AAu?$AAn?$AAk?$AAn?$AAo?$AAw?$AAn?$AA?$DO?$AA?$AA@ 1002a058     libucrt:assert.obj
 0002:00004088       ___newctype                1002a088     libucrt:ctype.obj
 0002:00004388       ___newclmap                1002a388     libucrt:ctype.obj
 0002:00004508       ___newcumap                1002a508     libucrt:ctype.obj
 0002:00004688       __wctype                   1002a688     libucrt:ctype.obj
 0002:000049f0       ?large_power_data@?1??multiply_by_power_of_ten@__crt_strtox@@YA_NAAUbig_integer@2@I@Z@4QBIB 1002a9f0     libucrt:strtod.obj
 0002:000052f8       ?large_power_indices@?1??multiply_by_power_of_ten@__crt_strtox@@YA_NAAUbig_integer@2@I@Z@4QBUunpack_index@?1??12@YA_N0I@Z@B 1002b2f8     libucrt:strtod.obj
 0002:00005390       ?small_powers_of_ten@?1??multiply_by_power_of_ten@__crt_strtox@@YA_NAAUbig_integer@2@I@Z@4QBIB 1002b390     libucrt:strtod.obj
 0002:000053c4       __half                     1002b3c4     libucrt:pow_impl.obj
 0002:000053d0       ___acrt_exception_action_table 1002b3d0     libucrt:exception_filter.obj
 0002:00005460       ___acrt_signal_action_table_count 1002b460     libucrt:exception_filter.obj
 0002:00005464       ___acrt_signal_action_first_fpe_index 1002b464     libucrt:exception_filter.obj
 0002:00005468       ___acrt_signal_action_fpe_count 1002b468     libucrt:exception_filter.obj
 0002:0000546c       ??_C@_1BI@BGOHAHKC@?$AAm?$AAs?$AAc?$AAo?$AAr?$AAe?$AAe?$AA?4?$AAd?$AAl?$AAl?$AA?$AA@ 1002b46c     libucrt:exit.obj
 0002:00005484       ??_C@_0P@MIGLKIOC@CorExitProcess?$AA@ 1002b484     libucrt:exit.obj
 0002:00005518       ??_C@_00CNPNBAHC@?$AA@     1002b518     libucrt:mbrtowc.obj
 0002:000055a0       ___lc_category             1002b5a0     libucrt:wsetlocale.obj
 0002:000055e8       ??_C@_1O@GIFLHMA@?$AAL?$AAC?$AA_?$AAA?$AAL?$AAL?$AA?$AA@ 1002b5e8     libucrt:wsetlocale.obj
 0002:000055f8       ??_C@_1BG@PPOMIBNJ@?$AAL?$AAC?$AA_?$AAC?$AAO?$AAL?$AAL?$AAA?$AAT?$AAE?$AA?$AA@ 1002b5f8     libucrt:wsetlocale.obj
 0002:00005610       ??_C@_1BC@FFJGAPJM@?$AAL?$AAC?$AA_?$AAC?$AAT?$AAY?$AAP?$AAE?$AA?$AA@ 1002b610     libucrt:wsetlocale.obj
 0002:00005624       ??_C@_1BI@PCKFNJFB@?$AAL?$AAC?$AA_?$AAM?$AAO?$AAN?$AAE?$AAT?$AAA?$AAR?$AAY?$AA?$AA@ 1002b624     libucrt:wsetlocale.obj
 0002:0000563c       ??_C@_1BG@ENIEDKID@?$AAL?$AAC?$AA_?$AAN?$AAU?$AAM?$AAE?$AAR?$AAI?$AAC?$AA?$AA@ 1002b63c     libucrt:wsetlocale.obj
 0002:00005654       ??_C@_1BA@HAAOMIIG@?$AAL?$AAC?$AA_?$AAT?$AAI?$AAM?$AAE?$AA?$AA@ 1002b654     libucrt:wsetlocale.obj
 0002:00005664       ??_C@_15NBPDDFIP@?$AA?$DN?$AA?$DL?$AA?$AA@ 1002b664     libucrt:wsetlocale.obj
 0002:0000566c       ??_C@_13PJJBFPED@?$AA?$DL?$AA?$AA@ 1002b66c     libucrt:wsetlocale.obj
 0002:00005670       ??_C@_13NMPKAAJP@?$AA?$DN?$AA?$AA@ 1002b670     libucrt:wsetlocale.obj
 0002:00005674       ??_C@_13FHBKNHDA@?$AAC?$AA?$AA@ 1002b674     libucrt:wsetlocale.obj
 0002:00005678       ??_C@_19MPDNHKDG@?$AAu?$AAt?$AAf?$AA8?$AA?$AA@ 1002b678     libucrt:wsetlocale.obj
 0002:00005684       ??_C@_1M@FPEIIFAM@?$AAu?$AAt?$AAf?$AA?9?$AA8?$AA?$AA@ 1002b684     libucrt:wsetlocale.obj
 0002:00005690       ??_C@_17MBJJLFDM@?$AA_?$AA?4?$AA?0?$AA?$AA@ 1002b690     libucrt:wsetlocale.obj
 0002:00005698       ??_C@_13ENNFDPBH@?$AA_?$AA?$AA@ 1002b698     libucrt:wsetlocale.obj
 0002:0000569c       ??_C@_13JOFGPIOO@?$AA?4?$AA?$AA@ 1002b69c     libucrt:wsetlocale.obj
 0002:000056a0       ___lc_time_c               1002b6a0     libucrt:nlsdata.obj
 0002:00005804       ??_C@_03KOEHGMDN@Sun?$AA@  1002b804     libucrt:nlsdata.obj
 0002:00005808       ??_C@_03PDAGKDH@Mon?$AA@   1002b808     libucrt:nlsdata.obj
 0002:0000580c       ??_C@_03NAGEINEP@Tue?$AA@  1002b80c     libucrt:nlsdata.obj
 0002:00005810       ??_C@_03MHOMLAJA@Wed?$AA@  1002b810     libucrt:nlsdata.obj
 0002:00005814       ??_C@_03IOFIKPDN@Thu?$AA@  1002b814     libucrt:nlsdata.obj
 0002:00005818       ??_C@_03IDIOELNC@Fri?$AA@  1002b818     libucrt:nlsdata.obj
 0002:0000581c       ??_C@_03FEFJNEK@Sat?$AA@   1002b81c     libucrt:nlsdata.obj
 0002:00005820       ??_C@_06OOPIFAJ@Sunday?$AA@ 1002b820     libucrt:nlsdata.obj
 0002:00005828       ??_C@_06JLEDEDGH@Monday?$AA@ 1002b828     libucrt:nlsdata.obj
 0002:00005830       ??_C@_07BAAGCFCM@Tuesday?$AA@ 1002b830     libucrt:nlsdata.obj
 0002:00005838       ??_C@_09DLIGFAKA@Wednesday?$AA@ 1002b838     libucrt:nlsdata.obj
 0002:00005844       ??_C@_08HACCIKIA@Thursday?$AA@ 1002b844     libucrt:nlsdata.obj
 0002:00005850       ??_C@_06JECMNKMI@Friday?$AA@ 1002b850     libucrt:nlsdata.obj
 0002:00005858       ??_C@_08INBOOONO@Saturday?$AA@ 1002b858     libucrt:nlsdata.obj
 0002:00005864       ??_C@_03JIHJHPIE@Jan?$AA@  1002b864     libucrt:nlsdata.obj
 0002:00005868       ??_C@_03HJBDCHOM@Feb?$AA@  1002b868     libucrt:nlsdata.obj
 0002:0000586c       ??_C@_03ODNJBKGA@Mar?$AA@  1002b86c     libucrt:nlsdata.obj
 0002:00005870       ??_C@_03LEOLGMJP@Apr?$AA@  1002b870     libucrt:nlsdata.obj
 0002:00005874       ??_C@_03CNMDKL@May?$AA@    1002b874     libucrt:nlsdata.obj
 0002:00005878       ??_C@_03IDFGHECI@Jun?$AA@  1002b878     libucrt:nlsdata.obj
 0002:0000587c       ??_C@_03LBGABGKK@Jul?$AA@  1002b87c     libucrt:nlsdata.obj
 0002:00005880       ??_C@_03IFJFEIGA@Aug?$AA@  1002b880     libucrt:nlsdata.obj
 0002:00005884       ??_C@_03GGCAPAJC@Sep?$AA@  1002b884     libucrt:nlsdata.obj
 0002:00005888       ??_C@_03BMAOKBAD@Oct?$AA@  1002b888     libucrt:nlsdata.obj
 0002:0000588c       ??_C@_03JPJOFNIA@Nov?$AA@  1002b88c     libucrt:nlsdata.obj
 0002:00005890       ??_C@_03MKABNOCG@Dec?$AA@  1002b890     libucrt:nlsdata.obj
 0002:00005894       ??_C@_07CGJPFGJA@January?$AA@ 1002b894     libucrt:nlsdata.obj
 0002:0000589c       ??_C@_08GNJGEPFN@February?$AA@ 1002b89c     libucrt:nlsdata.obj
 0002:000058a8       ??_C@_05HPCKOFNC@March?$AA@ 1002b8a8     libucrt:nlsdata.obj
 0002:000058b0       ??_C@_05DMJDNLEJ@April?$AA@ 1002b8b0     libucrt:nlsdata.obj
 0002:000058b8       ??_C@_04CNLMGBGM@June?$AA@ 1002b8b8     libucrt:nlsdata.obj
 0002:000058c0       ??_C@_04MIEPOIFP@July?$AA@ 1002b8c0     libucrt:nlsdata.obj
 0002:000058c8       ??_C@_06LBBHFDDG@August?$AA@ 1002b8c8     libucrt:nlsdata.obj
 0002:000058d0       ??_C@_09BHHEALKD@September?$AA@ 1002b8d0     libucrt:nlsdata.obj
 0002:000058dc       ??_C@_07JJNFCEND@October?$AA@ 1002b8dc     libucrt:nlsdata.obj
 0002:000058e4       ??_C@_08HCHEGEOA@November?$AA@ 1002b8e4     libucrt:nlsdata.obj
 0002:000058f0       ??_C@_08EDHMEBNP@December?$AA@ 1002b8f0     libucrt:nlsdata.obj
 0002:000058fc       ??_C@_02DEDBPAFC@AM?$AA@   1002b8fc     libucrt:nlsdata.obj
 0002:00005900       ??_C@_02CJNFDJBF@PM?$AA@   1002b900     libucrt:nlsdata.obj
 0002:00005904       ??_C@_08BPBNCDIB@MM?1dd?1yy?$AA@ 1002b904     libucrt:nlsdata.obj
 0002:00005910       ??_C@_0BE@CKGJFCPC@dddd?0?5MMMM?5dd?0?5yyyy?$AA@ 1002b910     libucrt:nlsdata.obj
 0002:00005924       ??_C@_08JCCMCCIL@HH?3mm?3ss?$AA@ 1002b924     libucrt:nlsdata.obj
 0002:00005930       ??_C@_17MBGCMIPB@?$AAS?$AAu?$AAn?$AA?$AA@ 1002b930     libucrt:nlsdata.obj
 0002:00005938       ??_C@_17KBOMKBF@?$AAM?$AAo?$AAn?$AA?$AA@ 1002b938     libucrt:nlsdata.obj
 0002:00005940       ??_C@_17BMKGEGOJ@?$AAT?$AAu?$AAe?$AA?$AA@ 1002b940     libucrt:nlsdata.obj
 0002:00005948       ??_C@_17CJEDCEPE@?$AAW?$AAe?$AAd?$AA?$AA@ 1002b948     libucrt:nlsdata.obj
 0002:00005950       ??_C@_17PDPHAADD@?$AAT?$AAh?$AAu?$AA?$AA@ 1002b950     libucrt:nlsdata.obj
 0002:00005958       ??_C@_17HFOLPPLP@?$AAF?$AAr?$AAi?$AA?$AA@ 1002b958     libucrt:nlsdata.obj
 0002:00005960       ??_C@_17GGIBDPIH@?$AAS?$AAa?$AAt?$AA?$AA@ 1002b960     libucrt:nlsdata.obj
 0002:00005968       ??_C@_1O@IHNHDHPB@?$AAS?$AAu?$AAn?$AAd?$AAa?$AAy?$AA?$AA@ 1002b968     libucrt:nlsdata.obj
 0002:00005978       ??_C@_1O@MMNBFLIA@?$AAM?$AAo?$AAn?$AAd?$AAa?$AAy?$AA?$AA@ 1002b978     libucrt:nlsdata.obj
 0002:00005988       ??_C@_1BA@ENFBFFEK@?$AAT?$AAu?$AAe?$AAs?$AAd?$AAa?$AAy?$AA?$AA@ 1002b988     libucrt:nlsdata.obj
 0002:00005998       ??_C@_1BE@EBOGMDOH@?$AAW?$AAe?$AAd?$AAn?$AAe?$AAs?$AAd?$AAa?$AAy?$AA?$AA@ 1002b998     libucrt:nlsdata.obj
 0002:000059ac       ??_C@_1BC@HHMNLIHE@?$AAT?$AAh?$AAu?$AAr?$AAs?$AAd?$AAa?$AAy?$AA?$AA@ 1002b9ac     libucrt:nlsdata.obj
 0002:000059c0       ??_C@_1O@PDICJHAG@?$AAF?$AAr?$AAi?$AAd?$AAa?$AAy?$AA?$AA@ 1002b9c0     libucrt:nlsdata.obj
 0002:000059d0       ??_C@_1BC@ENMNNPAJ@?$AAS?$AAa?$AAt?$AAu?$AAr?$AAd?$AAa?$AAy?$AA?$AA@ 1002b9d0     libucrt:nlsdata.obj
 0002:000059e4       ??_C@_17DKNBKCHM@?$AAJ?$AAa?$AAn?$AA?$AA@ 1002b9e4     libucrt:nlsdata.obj
 0002:000059ec       ??_C@_17LMDJEKJN@?$AAF?$AAe?$AAb?$AA?$AA@ 1002b9ec     libucrt:nlsdata.obj
 0002:000059f4       ??_C@_17CKNLEDEC@?$AAM?$AAa?$AAr?$AA?$AA@ 1002b9f4     libucrt:nlsdata.obj
 0002:000059fc       ??_C@_17LFPOIHDD@?$AAA?$AAp?$AAr?$AA?$AA@ 1002b9fc     libucrt:nlsdata.obj
 0002:00005a04       ??_C@_17PNNKMEED@?$AAM?$AAa?$AAy?$AA?$AA@ 1002ba04     libucrt:nlsdata.obj
 0002:00005a0c       ??_C@_17KCJGOCPB@?$AAJ?$AAu?$AAn?$AA?$AA@ 1002ba0c     libucrt:nlsdata.obj
 0002:00005a14       ??_C@_17IJPCKHK@?$AAJ?$AAu?$AAl?$AA?$AA@ 1002ba14     libucrt:nlsdata.obj
 0002:00005a1c       ??_C@_17ICPELBCN@?$AAA?$AAu?$AAg?$AA?$AA@ 1002ba1c     libucrt:nlsdata.obj
 0002:00005a24       ??_C@_17HCHCOKMG@?$AAS?$AAe?$AAp?$AA?$AA@ 1002ba24     libucrt:nlsdata.obj
 0002:00005a2c       ??_C@_17FNLKOI@?$AAO?$AAc?$AAt?$AA?$AA@ 1002ba2c     libucrt:nlsdata.obj
 0002:00005a34       ??_C@_17BBDMLCIG@?$AAN?$AAo?$AAv?$AA?$AA@ 1002ba34     libucrt:nlsdata.obj
 0002:00005a3c       ??_C@_17EGKACKIF@?$AAD?$AAe?$AAc?$AA?$AA@ 1002ba3c     libucrt:nlsdata.obj
 0002:00005a44       ??_C@_1BA@EFMEIEBA@?$AAJ?$AAa?$AAn?$AAu?$AAa?$AAr?$AAy?$AA?$AA@ 1002ba44     libucrt:nlsdata.obj
 0002:00005a54       ??_C@_1BC@JGDDFFAM@?$AAF?$AAe?$AAb?$AAr?$AAu?$AAa?$AAr?$AAy?$AA?$AA@ 1002ba54     libucrt:nlsdata.obj
 0002:00005a68       ??_C@_1M@IKEENEDF@?$AAM?$AAa?$AAr?$AAc?$AAh?$AA?$AA@ 1002ba68     libucrt:nlsdata.obj
 0002:00005a74       ??_C@_1M@GJNLMHFD@?$AAA?$AAp?$AAr?$AAi?$AAl?$AA?$AA@ 1002ba74     libucrt:nlsdata.obj
 0002:00005a80       ??_C@_19EPFLPGAP@?$AAJ?$AAu?$AAn?$AAe?$AA?$AA@ 1002ba80     libucrt:nlsdata.obj
 0002:00005a8c       ??_C@_19BIFMLPCD@?$AAJ?$AAu?$AAl?$AAy?$AA?$AA@ 1002ba8c     libucrt:nlsdata.obj
 0002:00005a98       ??_C@_1O@PAHLKOAC@?$AAA?$AAu?$AAg?$AAu?$AAs?$AAt?$AA?$AA@ 1002ba98     libucrt:nlsdata.obj
 0002:00005aa8       ??_C@_1BE@DKAAMBJL@?$AAS?$AAe?$AAp?$AAt?$AAe?$AAm?$AAb?$AAe?$AAr?$AA?$AA@ 1002baa8     libucrt:nlsdata.obj
 0002:00005abc       ??_C@_1BA@EPANDLNG@?$AAO?$AAc?$AAt?$AAo?$AAb?$AAe?$AAr?$AA?$AA@ 1002babc     libucrt:nlsdata.obj
 0002:00005acc       ??_C@_1BC@BGLIFPF@?$AAN?$AAo?$AAv?$AAe?$AAm?$AAb?$AAe?$AAr?$AA?$AA@ 1002bacc     libucrt:nlsdata.obj
 0002:00005ae0       ??_C@_1BC@FEMKIFH@?$AAD?$AAe?$AAc?$AAe?$AAm?$AAb?$AAe?$AAr?$AA?$AA@ 1002bae0     libucrt:nlsdata.obj
 0002:00005af4       ??_C@_15ODEHAHHF@?$AAA?$AAM?$AA?$AA@ 1002baf4     libucrt:nlsdata.obj
 0002:00005afc       ??_C@_15CLMNNGEL@?$AAP?$AAM?$AA?$AA@ 1002bafc     libucrt:nlsdata.obj
 0002:00005b04       ??_C@_1BC@IEBCMHCM@?$AAM?$AAM?$AA?1?$AAd?$AAd?$AA?1?$AAy?$AAy?$AA?$AA@ 1002bb04     libucrt:nlsdata.obj
 0002:00005b18       ??_C@_1CI@KNAKOEBC@?$AAd?$AAd?$AAd?$AAd?$AA?0?$AA?5?$AAM?$AAM?$AAM?$AAM?$AA?5?$AAd?$AAd?$AA?0?$AA?5?$AAy?$AAy?$AAy?$AAy?$AA?$AA@ 1002bb18     libucrt:nlsdata.obj
 0002:00005b40       ??_C@_1BC@GDGBMEMK@?$AAH?$AAH?$AA?3?$AAm?$AAm?$AA?3?$AAs?$AAs?$AA?$AA@ 1002bb40     libucrt:nlsdata.obj
 0002:00005b54       ??_C@_1M@BMHNFIME@?$AAe?$AAn?$AA?9?$AAU?$AAS?$AA?$AA@ 1002bb54     libucrt:nlsdata.obj
 0002:00005b60       ??_C@_03OEIAHPBN@INF?$AA@  1002bb60     libucrt:cvt.obj
 0002:00005b64       ??_C@_03OJHLLCGB@inf?$AA@  1002bb64     libucrt:cvt.obj
 0002:00005b68       ??_C@_03LKNCIKJB@NAN?$AA@  1002bb68     libucrt:cvt.obj
 0002:00005b6c       ??_C@_03LHCJEHON@nan?$AA@  1002bb6c     libucrt:cvt.obj
 0002:00005b70       ??_C@_09OFJJIMPC@NAN?$CISNAN?$CJ?$AA@ 1002bb70     libucrt:cvt.obj
 0002:00005b7c       ??_C@_09IPFBKMDL@nan?$CIsnan?$CJ?$AA@ 1002bb7c     libucrt:cvt.obj
 0002:00005b88       ??_C@_08IKHNHAJ@NAN?$CIIND?$CJ?$AA@ 1002bb88     libucrt:cvt.obj
 0002:00005b94       ??_C@_08OFCDMILK@nan?$CIind?$CJ?$AA@ 1002bb94     libucrt:cvt.obj
 0002:00005ba0       ??_C@_05KLBDPFGC@e?$CL000?$AA@ 1002bba0     libucrt:cvt.obj
 0002:00005c90       ??_C@_03KHJOGHMM@exp?$AA@  1002bc90     libucrt:fpexcept.obj
 0002:00005c94       ??_C@_03JGHBODFD@pow?$AA@  1002bc94     libucrt:fpexcept.obj
 0002:00005c98       ??_C@_03MGHMBJCF@log?$AA@  1002bc98     libucrt:fpexcept.obj
 0002:00005c9c       ??_C@_05HGHHAHAP@log10?$AA@ 1002bc9c     libucrt:fpexcept.obj
 0002:00005ca4       ??_C@_04COOMCNPB@sinh?$AA@ 1002bca4     libucrt:fpexcept.obj
 0002:00005cac       ??_C@_04HPJJNFIM@cosh?$AA@ 1002bcac     libucrt:fpexcept.obj
 0002:00005cb4       ??_C@_04FJHINJAO@tanh?$AA@ 1002bcb4     libucrt:fpexcept.obj
 0002:00005cbc       ??_C@_04FIHNOPOL@asin?$AA@ 1002bcbc     libucrt:fpexcept.obj
 0002:00005cc4       ??_C@_04PDIFKINK@acos?$AA@ 1002bcc4     libucrt:fpexcept.obj
 0002:00005ccc       ??_C@_04MLLJIGOK@atan?$AA@ 1002bccc     libucrt:fpexcept.obj
 0002:00005cd4       ??_C@_05KNGEOGJB@atan2?$AA@ 1002bcd4     libucrt:fpexcept.obj
 0002:00005cdc       ??_C@_04EIAKFFMI@sqrt?$AA@ 1002bcdc     libucrt:fpexcept.obj
 0002:00005ce4       ??_C@_03BLEJJJBH@sin?$AA@  1002bce4     libucrt:fpexcept.obj
 0002:00005ce8       ??_C@_03LALBNOCG@cos?$AA@  1002bce8     libucrt:fpexcept.obj
 0002:00005cec       ??_C@_03IIINPABG@tan?$AA@  1002bcec     libucrt:fpexcept.obj
 0002:00005cf0       ??_C@_04GFPJNGEK@ceil?$AA@ 1002bcf0     libucrt:fpexcept.obj
 0002:00005cf8       ??_C@_05PBJFFIGL@floor?$AA@ 1002bcf8     libucrt:fpexcept.obj
 0002:00005d00       ??_C@_04ODHECPBC@fabs?$AA@ 1002bd00     libucrt:fpexcept.obj
 0002:00005d08       ??_C@_04EHEDPDJG@modf?$AA@ 1002bd08     libucrt:fpexcept.obj
 0002:00005d10       ??_C@_05CEJMAHNP@ldexp?$AA@ 1002bd10     libucrt:fpexcept.obj
 0002:00005d18       ??_C@_05KBKMEMPO@_cabs?$AA@ 1002bd18     libucrt:fpexcept.obj
 0002:00005d20       ??_C@_06MEIMCGCF@_hypot?$AA@ 1002bd20     libucrt:fpexcept.obj
 0002:00005d28       ??_C@_04KEPJIHGP@fmod?$AA@ 1002bd28     libucrt:fpexcept.obj
 0002:00005d30       ??_C@_05GKKHEGJL@frexp?$AA@ 1002bd30     libucrt:fpexcept.obj
 0002:00005d38       ??_C@_03MJLDFKDL@_y0?$AA@  1002bd38     libucrt:fpexcept.obj
 0002:00005d3c       ??_C@_03NAKIGLHK@_y1?$AA@  1002bd3c     libucrt:fpexcept.obj
 0002:00005d40       ??_C@_03ONILCKOB@_yn?$AA@  1002bd40     libucrt:fpexcept.obj
 0002:00005d44       ??_C@_05JGDBENOH@_logb?$AA@ 1002bd44     libucrt:fpexcept.obj
 0002:00005d4c       ??_C@_0L@KDOEJCKC@_nextafter?$AA@ 1002bd4c     libucrt:fpexcept.obj
 0002:00005d58       __d_inf                    1002bd58     libucrt:util.obj
 0002:00005d60       __d_max                    1002bd60     libucrt:util.obj
 0002:00005d68       __d_mzero                  1002bd68     libucrt:util.obj
 0002:00005dd8       ??_C@_1EA@JGEFHKEI@?$AAa?$AAp?$AAi?$AA?9?$AAm?$AAs?$AA?9?$AAw?$AAi?$AAn?$AA?9?$AAc?$AAo?$AAr?$AAe?$AA?9?$AAd?$AAa?$AAt?$AAe?$AAt?$AAi?$AAm?$AAe?$AA?9?$AAl?$AA1?$AA?9?$AA1?$AA?9?$AA1?$AA?$AA@ 1002bdd8     libucrt:winapi_thunks.obj
 0002:00005e18       ??_C@_1DM@KHCHBNEB@?$AAa?$AAp?$AAi?$AA?9?$AAm?$AAs?$AA?9?$AAw?$AAi?$AAn?$AA?9?$AAc?$AAo?$AAr?$AAe?$AA?9?$AAf?$AAi?$AAb?$AAe?$AAr?$AAs?$AA?9?$AAl?$AA1?$AA?9?$AA1?$AA?9?$AA1?$AA?$AA@ 1002be18     libucrt:winapi_thunks.obj
 0002:00005e54       ??_C@_1DI@IJCEHOCB@?$AAa?$AAp?$AAi?$AA?9?$AAm?$AAs?$AA?9?$AAw?$AAi?$AAn?$AA?9?$AAc?$AAo?$AAr?$AAe?$AA?9?$AAf?$AAi?$AAl?$AAe?$AA?9?$AAl?$AA1?$AA?9?$AA2?$AA?9?$AA2?$AA?$AA@ 1002be54     libucrt:winapi_thunks.obj
 0002:00005e90       ??_C@_1EI@MPIAOHOC@?$AAa?$AAp?$AAi?$AA?9?$AAm?$AAs?$AA?9?$AAw?$AAi?$AAn?$AA?9?$AAc?$AAo?$AAr?$AAe?$AA?9?$AAl?$AAo?$AAc?$AAa?$AAl?$AAi?$AAz?$AAa?$AAt?$AAi?$AAo?$AAn?$AA?9?$AAl?$AA1?$AA?9@ 1002be90     libucrt:winapi_thunks.obj
 0002:00005ed8       ??_C@_1FK@FPHCKFIE@?$AAa?$AAp?$AAi?$AA?9?$AAm?$AAs?$AA?9?$AAw?$AAi?$AAn?$AA?9?$AAc?$AAo?$AAr?$AAe?$AA?9?$AAl?$AAo?$AAc?$AAa?$AAl?$AAi?$AAz?$AAa?$AAt?$AAi?$AAo?$AAn?$AA?9?$AAo?$AAb?$AAs@ 1002bed8     libucrt:winapi_thunks.obj
 0002:00005f38       ??_C@_1EM@DILCGIIO@?$AAa?$AAp?$AAi?$AA?9?$AAm?$AAs?$AA?9?$AAw?$AAi?$AAn?$AA?9?$AAc?$AAo?$AAr?$AAe?$AA?9?$AAp?$AAr?$AAo?$AAc?$AAe?$AAs?$AAs?$AAt?$AAh?$AAr?$AAe?$AAa?$AAd?$AAs?$AA?9?$AAl@ 1002bf38     libucrt:winapi_thunks.obj
 0002:00005f84       ??_C@_1DM@LNCGDDPN@?$AAa?$AAp?$AAi?$AA?9?$AAm?$AAs?$AA?9?$AAw?$AAi?$AAn?$AA?9?$AAc?$AAo?$AAr?$AAe?$AA?9?$AAs?$AAt?$AAr?$AAi?$AAn?$AAg?$AA?9?$AAl?$AA1?$AA?9?$AA1?$AA?9?$AA0?$AA?$AA@ 1002bf84     libucrt:winapi_thunks.obj
 0002:00005fc0       ??_C@_1DK@LPPGFMPP@?$AAa?$AAp?$AAi?$AA?9?$AAm?$AAs?$AA?9?$AAw?$AAi?$AAn?$AA?9?$AAc?$AAo?$AAr?$AAe?$AA?9?$AAs?$AAy?$AAn?$AAc?$AAh?$AA?9?$AAl?$AA1?$AA?9?$AA2?$AA?9?$AA0?$AA?$AA@ 1002bfc0     libucrt:winapi_thunks.obj
 0002:00005ffc       ??_C@_1DO@FPAPJEMD@?$AAa?$AAp?$AAi?$AA?9?$AAm?$AAs?$AA?9?$AAw?$AAi?$AAn?$AA?9?$AAc?$AAo?$AAr?$AAe?$AA?9?$AAs?$AAy?$AAs?$AAi?$AAn?$AAf?$AAo?$AA?9?$AAl?$AA1?$AA?9?$AA2?$AA?9?$AA1?$AA?$AA@ 1002bffc     libucrt:winapi_thunks.obj
 0002:0000603c       ??_C@_1DK@NDHNAHIO@?$AAa?$AAp?$AAi?$AA?9?$AAm?$AAs?$AA?9?$AAw?$AAi?$AAn?$AA?9?$AAc?$AAo?$AAr?$AAe?$AA?9?$AAw?$AAi?$AAn?$AAr?$AAt?$AA?9?$AAl?$AA1?$AA?9?$AA1?$AA?9?$AA0?$AA?$AA@ 1002c03c     libucrt:winapi_thunks.obj
 0002:00006078       ??_C@_1DM@KGHDGBCM@?$AAa?$AAp?$AAi?$AA?9?$AAm?$AAs?$AA?9?$AAw?$AAi?$AAn?$AA?9?$AAc?$AAo?$AAr?$AAe?$AA?9?$AAx?$AAs?$AAt?$AAa?$AAt?$AAe?$AA?9?$AAl?$AA2?$AA?9?$AA1?$AA?9?$AA0?$AA?$AA@ 1002c078     libucrt:winapi_thunks.obj
 0002:000060b8       ??_C@_1EO@IJIOEFOH@?$AAa?$AAp?$AAi?$AA?9?$AAm?$AAs?$AA?9?$AAw?$AAi?$AAn?$AA?9?$AAr?$AAt?$AAc?$AAo?$AAr?$AAe?$AA?9?$AAn?$AAt?$AAu?$AAs?$AAe?$AAr?$AA?9?$AAw?$AAi?$AAn?$AAd?$AAo?$AAw?$AA?9@ 1002c0b8     libucrt:winapi_thunks.obj
 0002:00006108       ??_C@_1FG@HHGEKANL@?$AAa?$AAp?$AAi?$AA?9?$AAm?$AAs?$AA?9?$AAw?$AAi?$AAn?$AA?9?$AAs?$AAe?$AAc?$AAu?$AAr?$AAi?$AAt?$AAy?$AA?9?$AAs?$AAy?$AAs?$AAt?$AAe?$AAm?$AAf?$AAu?$AAn?$AAc?$AAt?$AAi@ 1002c108     libucrt:winapi_thunks.obj
 0002:00006160       ??_C@_1EG@DBIOJECG@?$AAe?$AAx?$AAt?$AA?9?$AAm?$AAs?$AA?9?$AAw?$AAi?$AAn?$AA?9?$AAn?$AAt?$AAu?$AAs?$AAe?$AAr?$AA?9?$AAd?$AAi?$AAa?$AAl?$AAo?$AAg?$AAb?$AAo?$AAx?$AA?9?$AAl?$AA1?$AA?9?$AA1@ 1002c160     libucrt:winapi_thunks.obj
 0002:000061a8       ??_C@_1EO@FIHMJCLF@?$AAe?$AAx?$AAt?$AA?9?$AAm?$AAs?$AA?9?$AAw?$AAi?$AAn?$AA?9?$AAn?$AAt?$AAu?$AAs?$AAe?$AAr?$AA?9?$AAw?$AAi?$AAn?$AAd?$AAo?$AAw?$AAs?$AAt?$AAa?$AAt?$AAi?$AAo?$AAn?$AA?9@ 1002c1a8     libucrt:winapi_thunks.obj
 0002:000061f8       ??_C@_1BC@DNHGCMLG@?$AAa?$AAd?$AAv?$AAa?$AAp?$AAi?$AA3?$AA2?$AA?$AA@ 1002c1f8     libucrt:winapi_thunks.obj
 0002:0000620c       ??_C@_1BC@GDMECMAK@?$AAk?$AAe?$AAr?$AAn?$AAe?$AAl?$AA3?$AA2?$AA?$AA@ 1002c20c     libucrt:winapi_thunks.obj
 0002:00006220       ??_C@_1M@OAIMIKLP@?$AAn?$AAt?$AAd?$AAl?$AAl?$AA?$AA@ 1002c220     libucrt:winapi_thunks.obj
 0002:00006230       ??_C@_1EG@DPGNFKGC@?$AAa?$AAp?$AAi?$AA?9?$AAm?$AAs?$AA?9?$AAw?$AAi?$AAn?$AA?9?$AAa?$AAp?$AAp?$AAm?$AAo?$AAd?$AAe?$AAl?$AA?9?$AAr?$AAu?$AAn?$AAt?$AAi?$AAm?$AAe?$AA?9?$AAl?$AA1?$AA?9?$AA1@ 1002c230     libucrt:winapi_thunks.obj
 0002:00006278       ??_C@_1O@BCCLBEOE@?$AAu?$AAs?$AAe?$AAr?$AA3?$AA2?$AA?$AA@ 1002c278     libucrt:winapi_thunks.obj
 0002:00006288       ??_C@_1BA@PFFKHIOG@?$AAa?$AAp?$AAi?$AA?9?$AAm?$AAs?$AA?9?$AA?$AA@ 1002c288     libucrt:winapi_thunks.obj
 0002:00006298       ??_C@_1BA@IAIFMGEF@?$AAe?$AAx?$AAt?$AA?9?$AAm?$AAs?$AA?9?$AA?$AA@ 1002c298     libucrt:winapi_thunks.obj
 0002:000062ac       ??_C@_0BA@FHFNEAED@AreFileApisANSI?$AA@ 1002c2ac     libucrt:winapi_thunks.obj
 0002:000062c4       ??_C@_0BA@IHGNDAEB@CompareStringEx?$AA@ 1002c2c4     libucrt:winapi_thunks.obj
 0002:000062dc       ??_C@_0BE@LJANKFHF@EnumSystemLocalesEx?$AA@ 1002c2dc     libucrt:winapi_thunks.obj
 0002:000062f8       ??_C@_08KNHFBNJ@FlsAlloc?$AA@ 1002c2f8     libucrt:winapi_thunks.obj
 0002:0000630c       ??_C@_07PEJMOBNF@FlsFree?$AA@ 1002c30c     libucrt:winapi_thunks.obj
 0002:0000631c       ??_C@_0M@GDNOONDI@FlsGetValue?$AA@ 1002c31c     libucrt:winapi_thunks.obj
 0002:00006330       ??_C@_0M@JCPCPOEF@FlsSetValue?$AA@ 1002c330     libucrt:winapi_thunks.obj
 0002:00006344       ??_C@_0BA@HNOPNCHB@GetActiveWindow?$AA@ 1002c344     libucrt:winapi_thunks.obj
 0002:0000635c       ??_C@_0BA@EPCJIIPD@GetDateFormatEx?$AA@ 1002c35c     libucrt:winapi_thunks.obj
 0002:00006374       ??_C@_0BD@HHGDFDBJ@GetLastActivePopup?$AA@ 1002c374     libucrt:winapi_thunks.obj
 0002:00006390       ??_C@_0BA@ONOKGCMP@GetLocaleInfoEx?$AA@ 1002c390     libucrt:winapi_thunks.obj
 0002:000063a8       ??_C@_0BI@DFKBFLJE@GetProcessWindowStation?$AA@ 1002c3a8     libucrt:winapi_thunks.obj
 0002:000063c8       ??_C@_0BA@CIJJKCJJ@GetTimeFormatEx?$AA@ 1002c3c8     libucrt:winapi_thunks.obj
 0002:000063e0       ??_C@_0BJ@PBCCBIPI@GetUserDefaultLocaleName?$AA@ 1002c3e0     libucrt:winapi_thunks.obj
 0002:00006404       ??_C@_0BK@DEKFELLI@GetUserObjectInformationW?$AA@ 1002c404     libucrt:winapi_thunks.obj
 0002:00006428       ??_C@_0BM@HCFOFFN@InitializeCriticalSectionEx?$AA@ 1002c428     libucrt:winapi_thunks.obj
 0002:0000644c       ??_C@_0BC@CELBKLLA@IsValidLocaleName?$AA@ 1002c44c     libucrt:winapi_thunks.obj
 0002:00006468       ??_C@_0O@KKBNKAPF@LCMapStringEx?$AA@ 1002c468     libucrt:winapi_thunks.obj
 0002:00006480       ??_C@_0BB@CDHDDLLP@LCIDToLocaleName?$AA@ 1002c480     libucrt:winapi_thunks.obj
 0002:0000649c       ??_C@_0BB@HBDEELFH@LocaleNameToLCID?$AA@ 1002c49c     libucrt:winapi_thunks.obj
 0002:000064b8       ??_C@_0M@CHKKJDAI@MessageBoxA?$AA@ 1002c4b8     libucrt:winapi_thunks.obj
 0002:000064cc       ??_C@_0M@DLDCCGNP@MessageBoxW?$AA@ 1002c4cc     libucrt:winapi_thunks.obj
 0002:000064dc       ??_C@_0CF@OJOFEIGO@AppPolicyGetProcessTerminationMe@ 1002c4dc     libucrt:winapi_thunks.obj
 0002:00006508       ??_C@_0CE@OICFMIKE@AppPolicyGetShowDeveloperDiagnos@ 1002c508     libucrt:winapi_thunks.obj
 0002:00006530       ??_C@_0BL@ODDJNEDA@AppPolicyGetWindowingModel?$AA@ 1002c530     libucrt:winapi_thunks.obj
 0002:00006610       __infinity                 1002c610     libucrt:87tran.obj
 0002:0000661a       __minfinity                1002c61a     libucrt:87tran.obj
 0002:00006624       __logemax                  1002c624     libucrt:87tran.obj
 0002:0000664a       __OP_EXPjmptab             1002c64a     libucrt:87tran.obj
 0002:00006670       __indefinite               1002c670     libucrt:87disp.obj
 0002:0000667a       __piby2                    1002c67a     libucrt:87disp.obj
 0002:00006684       __piby4                    1002c684     libucrt:87disp.obj
 0002:000066b8       __DEFAULT_CW_in_mem        1002c6b8     libucrt:common.obj
 0002:000066ba       __pi_by_2_to_61            1002c6ba     libucrt:common.obj
 0002:000066f8       __real@3fe0000000000000    1002c6f8     libucrt:powhlp.obj
 0002:00006710       ??_C@_1M@HPNHIDJI@?$AAj?$AAa?$AA?9?$AAJ?$AAP?$AA?$AA@ 1002c710     libucrt:mbctype.obj
 0002:0000671c       ??_C@_1M@BIBDDEMK@?$AAz?$AAh?$AA?9?$AAC?$AAN?$AA?$AA@ 1002c71c     libucrt:mbctype.obj
 0002:00006728       ??_C@_1M@JLOOOEGK@?$AAk?$AAo?$AA?9?$AAK?$AAR?$AA?$AA@ 1002c728     libucrt:mbctype.obj
 0002:00006734       ??_C@_1M@CLNBBOPM@?$AAz?$AAh?$AA?9?$AAT?$AAW?$AA?$AA@ 1002c734     libucrt:mbctype.obj
 0002:00006740       ___acrt_rg_language        1002c740     libucrt:get_qualified_locale.obj
 0002:00006a4c       ___acrt_rg_language_count  1002ca4c     libucrt:get_qualified_locale.obj
 0002:00006a50       ___acrt_rg_country         1002ca50     libucrt:get_qualified_locale.obj
 0002:00006b64       ___acrt_rg_country_count   1002cb64     libucrt:get_qualified_locale.obj
 0002:00006b68       ??_C@_1BC@LLOKLNP@?$AAa?$AAm?$AAe?$AAr?$AAi?$AAc?$AAa?$AAn?$AA?$AA@ 1002cb68     libucrt:get_qualified_locale.obj
 0002:00006b7c       ??_C@_1CC@HEIGCDGG@?$AAa?$AAm?$AAe?$AAr?$AAi?$AAc?$AAa?$AAn?$AA?5?$AAe?$AAn?$AAg?$AAl?$AAi?$AAs?$AAh?$AA?$AA@ 1002cb7c     libucrt:get_qualified_locale.obj
 0002:00006ba0       ??_C@_1CC@IHCNOMIN@?$AAa?$AAm?$AAe?$AAr?$AAi?$AAc?$AAa?$AAn?$AA?9?$AAe?$AAn?$AAg?$AAl?$AAi?$AAs?$AAh?$AA?$AA@ 1002cba0     libucrt:get_qualified_locale.obj
 0002:00006bc4       ??_C@_1BG@GKAGPCGG@?$AAa?$AAu?$AAs?$AAt?$AAr?$AAa?$AAl?$AAi?$AAa?$AAn?$AA?$AA@ 1002cbc4     libucrt:get_qualified_locale.obj
 0002:00006bdc       ??_C@_1BA@GMENCENF@?$AAb?$AAe?$AAl?$AAg?$AAi?$AAa?$AAn?$AA?$AA@ 1002cbdc     libucrt:get_qualified_locale.obj
 0002:00006bec       ??_C@_1BC@PJMIIAAN@?$AAc?$AAa?$AAn?$AAa?$AAd?$AAi?$AAa?$AAn?$AA?$AA@ 1002cbec     libucrt:get_qualified_locale.obj
 0002:00006c00       ??_C@_17NOIMNFBF@?$AAc?$AAh?$AAh?$AA?$AA@ 1002cc00     libucrt:get_qualified_locale.obj
 0002:00006c08       ??_C@_17GGDALCHA@?$AAc?$AAh?$AAi?$AA?$AA@ 1002cc08     libucrt:get_qualified_locale.obj
 0002:00006c10       ??_C@_1BA@NPNJKIBL@?$AAc?$AAh?$AAi?$AAn?$AAe?$AAs?$AAe?$AA?$AA@ 1002cc10     libucrt:get_qualified_locale.obj
 0002:00006c20       ??_C@_1CC@DINBAMMJ@?$AAc?$AAh?$AAi?$AAn?$AAe?$AAs?$AAe?$AA?9?$AAh?$AAo?$AAn?$AAg?$AAk?$AAo?$AAn?$AAg?$AA?$AA@ 1002cc20     libucrt:get_qualified_locale.obj
 0002:00006c44       ??_C@_1CG@IOBJPACO@?$AAc?$AAh?$AAi?$AAn?$AAe?$AAs?$AAe?$AA?9?$AAs?$AAi?$AAm?$AAp?$AAl?$AAi?$AAf?$AAi?$AAe?$AAd?$AA?$AA@ 1002cc44     libucrt:get_qualified_locale.obj
 0002:00006c6c       ??_C@_1CE@GAJNDCKG@?$AAc?$AAh?$AAi?$AAn?$AAe?$AAs?$AAe?$AA?9?$AAs?$AAi?$AAn?$AAg?$AAa?$AAp?$AAo?$AAr?$AAe?$AA?$AA@ 1002cc6c     libucrt:get_qualified_locale.obj
 0002:00006c90       ??_C@_1CI@PAJPIOOD@?$AAc?$AAh?$AAi?$AAn?$AAe?$AAs?$AAe?$AA?9?$AAt?$AAr?$AAa?$AAd?$AAi?$AAt?$AAi?$AAo?$AAn?$AAa?$AAl?$AA?$AA@ 1002cc90     libucrt:get_qualified_locale.obj
 0002:00006cb8       ??_C@_1BM@NILJBMMD@?$AAd?$AAu?$AAt?$AAc?$AAh?$AA?9?$AAb?$AAe?$AAl?$AAg?$AAi?$AAa?$AAn?$AA?$AA@ 1002ccb8     libucrt:get_qualified_locale.obj
 0002:00006cd4       ??_C@_1CC@OOJPJNEJ@?$AAe?$AAn?$AAg?$AAl?$AAi?$AAs?$AAh?$AA?9?$AAa?$AAm?$AAe?$AAr?$AAi?$AAc?$AAa?$AAn?$AA?$AA@ 1002ccd4     libucrt:get_qualified_locale.obj
 0002:00006cf8       ??_C@_1BI@IOLFEEM@?$AAe?$AAn?$AAg?$AAl?$AAi?$AAs?$AAh?$AA?9?$AAa?$AAu?$AAs?$AA?$AA@ 1002ccf8     libucrt:get_qualified_locale.obj
 0002:00006d10       ??_C@_1BO@HFFNLENJ@?$AAe?$AAn?$AAg?$AAl?$AAi?$AAs?$AAh?$AA?9?$AAb?$AAe?$AAl?$AAi?$AAz?$AAe?$AA?$AA@ 1002cd10     libucrt:get_qualified_locale.obj
 0002:00006d30       ??_C@_1BI@HAPKJMPO@?$AAe?$AAn?$AAg?$AAl?$AAi?$AAs?$AAh?$AA?9?$AAc?$AAa?$AAn?$AA?$AA@ 1002cd30     libucrt:get_qualified_locale.obj
 0002:00006d48       ??_C@_1CE@HLNDMIOJ@?$AAe?$AAn?$AAg?$AAl?$AAi?$AAs?$AAh?$AA?9?$AAc?$AAa?$AAr?$AAi?$AAb?$AAb?$AAe?$AAa?$AAn?$AA?$AA@ 1002cd48     libucrt:get_qualified_locale.obj
 0002:00006d6c       ??_C@_1BI@LDHJHHAC@?$AAe?$AAn?$AAg?$AAl?$AAi?$AAs?$AAh?$AA?9?$AAi?$AAr?$AAe?$AA?$AA@ 1002cd6c     libucrt:get_qualified_locale.obj
 0002:00006d84       ??_C@_1CA@NJMMCFOC@?$AAe?$AAn?$AAg?$AAl?$AAi?$AAs?$AAh?$AA?9?$AAj?$AAa?$AAm?$AAa?$AAi?$AAc?$AAa?$AA?$AA@ 1002cd84     libucrt:get_qualified_locale.obj
 0002:00006da4       ??_C@_1BG@BHJEBBGG@?$AAe?$AAn?$AAg?$AAl?$AAi?$AAs?$AAh?$AA?9?$AAn?$AAz?$AA?$AA@ 1002cda4     libucrt:get_qualified_locale.obj
 0002:00006dbc       ??_C@_1CK@FGOEJJCO@?$AAe?$AAn?$AAg?$AAl?$AAi?$AAs?$AAh?$AA?9?$AAs?$AAo?$AAu?$AAt?$AAh?$AA?5?$AAa?$AAf?$AAr?$AAi?$AAc?$AAa?$AA?$AA@ 1002cdbc     libucrt:get_qualified_locale.obj
 0002:00006de8       ??_C@_1DE@PDBJPCJ@?$AAe?$AAn?$AAg?$AAl?$AAi?$AAs?$AAh?$AA?9?$AAt?$AAr?$AAi?$AAn?$AAi?$AAd?$AAa?$AAd?$AA?5?$AAy?$AA?5?$AAt?$AAo?$AAb?$AAa?$AAg?$AAo?$AA?$AA@ 1002cde8     libucrt:get_qualified_locale.obj
 0002:00006e1c       ??_C@_1BG@JGCANDME@?$AAe?$AAn?$AAg?$AAl?$AAi?$AAs?$AAh?$AA?9?$AAu?$AAk?$AA?$AA@ 1002ce1c     libucrt:get_qualified_locale.obj
 0002:00006e34       ??_C@_1BG@DINKMLE@?$AAe?$AAn?$AAg?$AAl?$AAi?$AAs?$AAh?$AA?9?$AAu?$AAs?$AA?$AA@ 1002ce34     libucrt:get_qualified_locale.obj
 0002:00006e4c       ??_C@_1BI@NMFDBHJE@?$AAe?$AAn?$AAg?$AAl?$AAi?$AAs?$AAh?$AA?9?$AAu?$AAs?$AAa?$AA?$AA@ 1002ce4c     libucrt:get_qualified_locale.obj
 0002:00006e64       ??_C@_1BO@OIHKJKII@?$AAf?$AAr?$AAe?$AAn?$AAc?$AAh?$AA?9?$AAb?$AAe?$AAl?$AAg?$AAi?$AAa?$AAn?$AA?$AA@ 1002ce64     libucrt:get_qualified_locale.obj
 0002:00006e84       ??_C@_1CA@NKAELJKI@?$AAf?$AAr?$AAe?$AAn?$AAc?$AAh?$AA?9?$AAc?$AAa?$AAn?$AAa?$AAd?$AAi?$AAa?$AAn?$AA?$AA@ 1002ce84     libucrt:get_qualified_locale.obj
 0002:00006ea4       ??_C@_1CE@MGKCNLGN@?$AAf?$AAr?$AAe?$AAn?$AAc?$AAh?$AA?9?$AAl?$AAu?$AAx?$AAe?$AAm?$AAb?$AAo?$AAu?$AAr?$AAg?$AA?$AA@ 1002cea4     libucrt:get_qualified_locale.obj
 0002:00006ec8       ??_C@_1BK@CEGEAILM@?$AAf?$AAr?$AAe?$AAn?$AAc?$AAh?$AA?9?$AAs?$AAw?$AAi?$AAs?$AAs?$AA?$AA@ 1002cec8     libucrt:get_qualified_locale.obj
 0002:00006ee4       ??_C@_1CA@PAFKEOCC@?$AAg?$AAe?$AAr?$AAm?$AAa?$AAn?$AA?9?$AAa?$AAu?$AAs?$AAt?$AAr?$AAi?$AAa?$AAn?$AA?$AA@ 1002cee4     libucrt:get_qualified_locale.obj
 0002:00006f04       ??_C@_1CI@HCFHGOFD@?$AAg?$AAe?$AAr?$AAm?$AAa?$AAn?$AA?9?$AAl?$AAi?$AAc?$AAh?$AAt?$AAe?$AAn?$AAs?$AAt?$AAe?$AAi?$AAn?$AA?$AA@ 1002cf04     libucrt:get_qualified_locale.obj
 0002:00006f2c       ??_C@_1CE@FEDDNPDG@?$AAg?$AAe?$AAr?$AAm?$AAa?$AAn?$AA?9?$AAl?$AAu?$AAx?$AAe?$AAm?$AAb?$AAo?$AAu?$AAr?$AAg?$AA?$AA@ 1002cf2c     libucrt:get_qualified_locale.obj
 0002:00006f50       ??_C@_1BK@LIMINNMN@?$AAg?$AAe?$AAr?$AAm?$AAa?$AAn?$AA?9?$AAs?$AAw?$AAi?$AAs?$AAs?$AA?$AA@ 1002cf50     libucrt:get_qualified_locale.obj
 0002:00006f6c       ??_C@_1BM@LGMDBEPD@?$AAi?$AAr?$AAi?$AAs?$AAh?$AA?9?$AAe?$AAn?$AAg?$AAl?$AAi?$AAs?$AAh?$AA?$AA@ 1002cf6c     libucrt:get_qualified_locale.obj
 0002:00006f88       ??_C@_1BM@NNCFBAEE@?$AAi?$AAt?$AAa?$AAl?$AAi?$AAa?$AAn?$AA?9?$AAs?$AAw?$AAi?$AAs?$AAs?$AA?$AA@ 1002cf88     libucrt:get_qualified_locale.obj
 0002:00006fa4       ??_C@_1BE@FEDJNPIB@?$AAn?$AAo?$AAr?$AAw?$AAe?$AAg?$AAi?$AAa?$AAn?$AA?$AA@ 1002cfa4     libucrt:get_qualified_locale.obj
 0002:00006fb8       ??_C@_1CC@CILKDEIE@?$AAn?$AAo?$AAr?$AAw?$AAe?$AAg?$AAi?$AAa?$AAn?$AA?9?$AAb?$AAo?$AAk?$AAm?$AAa?$AAl?$AA?$AA@ 1002cfb8     libucrt:get_qualified_locale.obj
 0002:00006fdc       ??_C@_1CE@DHMMHEPL@?$AAn?$AAo?$AAr?$AAw?$AAe?$AAg?$AAi?$AAa?$AAn?$AA?9?$AAn?$AAy?$AAn?$AAo?$AAr?$AAs?$AAk?$AA?$AA@ 1002cfdc     libucrt:get_qualified_locale.obj
 0002:00007000       ??_C@_1CK@OPNMHECD@?$AAp?$AAo?$AAr?$AAt?$AAu?$AAg?$AAu?$AAe?$AAs?$AAe?$AA?9?$AAb?$AAr?$AAa?$AAz?$AAi?$AAl?$AAi?$AAa?$AAn?$AA?$AA@ 1002d000     libucrt:get_qualified_locale.obj
 0002:0000702c       ??_C@_1CE@KEEHCDB@?$AAs?$AAp?$AAa?$AAn?$AAi?$AAs?$AAh?$AA?9?$AAa?$AAr?$AAg?$AAe?$AAn?$AAt?$AAi?$AAn?$AAa?$AA?$AA@ 1002d02c     libucrt:get_qualified_locale.obj
 0002:00007050       ??_C@_1CA@GIAOLHJD@?$AAs?$AAp?$AAa?$AAn?$AAi?$AAs?$AAh?$AA?9?$AAb?$AAo?$AAl?$AAi?$AAv?$AAi?$AAa?$AA?$AA@ 1002d050     libucrt:get_qualified_locale.obj
 0002:00007070       ??_C@_1BM@OJNDFNPD@?$AAs?$AAp?$AAa?$AAn?$AAi?$AAs?$AAh?$AA?9?$AAc?$AAh?$AAi?$AAl?$AAe?$AA?$AA@ 1002d070     libucrt:get_qualified_locale.obj
 0002:0000708c       ??_C@_1CC@OCOLPALL@?$AAs?$AAp?$AAa?$AAn?$AAi?$AAs?$AAh?$AA?9?$AAc?$AAo?$AAl?$AAo?$AAm?$AAb?$AAi?$AAa?$AA?$AA@ 1002d08c     libucrt:get_qualified_locale.obj
 0002:000070b0       ??_C@_1CG@BPOFMKBB@?$AAs?$AAp?$AAa?$AAn?$AAi?$AAs?$AAh?$AA?9?$AAc?$AAo?$AAs?$AAt?$AAa?$AA?5?$AAr?$AAi?$AAc?$AAa?$AA?$AA@ 1002d0b0     libucrt:get_qualified_locale.obj
 0002:000070d8       ??_C@_1DG@IGOBAPBB@?$AAs?$AAp?$AAa?$AAn?$AAi?$AAs?$AAh?$AA?9?$AAd?$AAo?$AAm?$AAi?$AAn?$AAi?$AAc?$AAa?$AAn?$AA?5?$AAr?$AAe?$AAp?$AAu?$AAb?$AAl?$AAi?$AAc?$AA?$AA@ 1002d0d8     libucrt:get_qualified_locale.obj
 0002:00007110       ??_C@_1CA@JHAPGEGI@?$AAs?$AAp?$AAa?$AAn?$AAi?$AAs?$AAh?$AA?9?$AAe?$AAc?$AAu?$AAa?$AAd?$AAo?$AAr?$AA?$AA@ 1002d110     libucrt:get_qualified_locale.obj
 0002:00007130       ??_C@_1CI@LAPALJPP@?$AAs?$AAp?$AAa?$AAn?$AAi?$AAs?$AAh?$AA?9?$AAe?$AAl?$AA?5?$AAs?$AAa?$AAl?$AAv?$AAa?$AAd?$AAo?$AAr?$AA?$AA@ 1002d130     libucrt:get_qualified_locale.obj
 0002:00007158       ??_C@_1CE@PDGBOFOM@?$AAs?$AAp?$AAa?$AAn?$AAi?$AAs?$AAh?$AA?9?$AAg?$AAu?$AAa?$AAt?$AAe?$AAm?$AAa?$AAl?$AAa?$AA?$AA@ 1002d158     libucrt:get_qualified_locale.obj
 0002:0000717c       ??_C@_1CC@NBEBAODI@?$AAs?$AAp?$AAa?$AAn?$AAi?$AAs?$AAh?$AA?9?$AAh?$AAo?$AAn?$AAd?$AAu?$AAr?$AAa?$AAs?$AA?$AA@ 1002d17c     libucrt:get_qualified_locale.obj
 0002:000071a0       ??_C@_1CA@LLKGHBMF@?$AAs?$AAp?$AAa?$AAn?$AAi?$AAs?$AAh?$AA?9?$AAm?$AAe?$AAx?$AAi?$AAc?$AAa?$AAn?$AA?$AA@ 1002d1a0     libucrt:get_qualified_locale.obj
 0002:000071c0       ??_C@_1BO@LKNDOIGD@?$AAs?$AAp?$AAa?$AAn?$AAi?$AAs?$AAh?$AA?9?$AAm?$AAo?$AAd?$AAe?$AAr?$AAn?$AA?$AA@ 1002d1c0     libucrt:get_qualified_locale.obj
 0002:000071e0       ??_C@_1CE@NMDMOEEB@?$AAs?$AAp?$AAa?$AAn?$AAi?$AAs?$AAh?$AA?9?$AAn?$AAi?$AAc?$AAa?$AAr?$AAa?$AAg?$AAu?$AAa?$AA?$AA@ 1002d1e0     libucrt:get_qualified_locale.obj
 0002:00007204       ??_C@_1BO@LLCBEJGB@?$AAs?$AAp?$AAa?$AAn?$AAi?$AAs?$AAh?$AA?9?$AAp?$AAa?$AAn?$AAa?$AAm?$AAa?$AA?$AA@ 1002d204     libucrt:get_qualified_locale.obj
 0002:00007224       ??_C@_1CC@FKPGGIHO@?$AAs?$AAp?$AAa?$AAn?$AAi?$AAs?$AAh?$AA?9?$AAp?$AAa?$AAr?$AAa?$AAg?$AAu?$AAa?$AAy?$AA?$AA@ 1002d224     libucrt:get_qualified_locale.obj
 0002:00007248       ??_C@_1BK@CDEIHOOP@?$AAs?$AAp?$AAa?$AAn?$AAi?$AAs?$AAh?$AA?9?$AAp?$AAe?$AAr?$AAu?$AA?$AA@ 1002d248     libucrt:get_qualified_locale.obj
 0002:00007264       ??_C@_1CI@GAHAKKGP@?$AAs?$AAp?$AAa?$AAn?$AAi?$AAs?$AAh?$AA?9?$AAp?$AAu?$AAe?$AAr?$AAt?$AAo?$AA?5?$AAr?$AAi?$AAc?$AAo?$AA?$AA@ 1002d264     libucrt:get_qualified_locale.obj
 0002:0000728c       ??_C@_1CA@NKJBCAGP@?$AAs?$AAp?$AAa?$AAn?$AAi?$AAs?$AAh?$AA?9?$AAu?$AAr?$AAu?$AAg?$AAu?$AAa?$AAy?$AA?$AA@ 1002d28c     libucrt:get_qualified_locale.obj
 0002:000072ac       ??_C@_1CE@ODILCONM@?$AAs?$AAp?$AAa?$AAn?$AAi?$AAs?$AAh?$AA?9?$AAv?$AAe?$AAn?$AAe?$AAz?$AAu?$AAe?$AAl?$AAa?$AA?$AA@ 1002d2ac     libucrt:get_qualified_locale.obj
 0002:000072d0       ??_C@_1CA@OBNMCGFO@?$AAs?$AAw?$AAe?$AAd?$AAi?$AAs?$AAh?$AA?9?$AAf?$AAi?$AAn?$AAl?$AAa?$AAn?$AAd?$AA?$AA@ 1002d2d0     libucrt:get_qualified_locale.obj
 0002:000072f0       ??_C@_1M@PIPDDPPI@?$AAs?$AAw?$AAi?$AAs?$AAs?$AA?$AA@ 1002d2f0     libucrt:get_qualified_locale.obj
 0002:000072fc       ??_C@_15PJPFLCCM@?$AAu?$AAk?$AA?$AA@ 1002d2fc     libucrt:get_qualified_locale.obj
 0002:00007304       ??_C@_15GMFIMNFM@?$AAu?$AAs?$AA?$AA@ 1002d304     libucrt:get_qualified_locale.obj
 0002:0000730c       ??_C@_17HAEBFAGL@?$AAu?$AAs?$AAa?$AA?$AA@ 1002d30c     libucrt:get_qualified_locale.obj
 0002:00007314       ??_C@_1BA@DPFJEPHB@?$AAa?$AAm?$AAe?$AAr?$AAi?$AAc?$AAa?$AA?$AA@ 1002d314     libucrt:get_qualified_locale.obj
 0002:00007324       ??_C@_1BA@ELOGGFK@?$AAb?$AAr?$AAi?$AAt?$AAa?$AAi?$AAn?$AA?$AA@ 1002d324     libucrt:get_qualified_locale.obj
 0002:00007334       ??_C@_1M@GHBGIGDA@?$AAc?$AAh?$AAi?$AAn?$AAa?$AA?$AA@ 1002d334     libucrt:get_qualified_locale.obj
 0002:00007340       ??_C@_1M@NCHEJOPO@?$AAc?$AAz?$AAe?$AAc?$AAh?$AA?$AA@ 1002d340     libucrt:get_qualified_locale.obj
 0002:0000734c       ??_C@_1BA@BKPAPBLA@?$AAe?$AAn?$AAg?$AAl?$AAa?$AAn?$AAd?$AA?$AA@ 1002d34c     libucrt:get_qualified_locale.obj
 0002:0000735c       ??_C@_1BM@HKBCKIPC@?$AAg?$AAr?$AAe?$AAa?$AAt?$AA?5?$AAb?$AAr?$AAi?$AAt?$AAa?$AAi?$AAn?$AA?$AA@ 1002d35c     libucrt:get_qualified_locale.obj
 0002:00007378       ??_C@_1BA@PPCHPGJB@?$AAh?$AAo?$AAl?$AAl?$AAa?$AAn?$AAd?$AA?$AA@ 1002d378     libucrt:get_qualified_locale.obj
 0002:00007388       ??_C@_1BE@JBMPEGDG@?$AAh?$AAo?$AAn?$AAg?$AA?9?$AAk?$AAo?$AAn?$AAg?$AA?$AA@ 1002d388     libucrt:get_qualified_locale.obj
 0002:0000739c       ??_C@_1BI@KOELBBPJ@?$AAn?$AAe?$AAw?$AA?9?$AAz?$AAe?$AAa?$AAl?$AAa?$AAn?$AAd?$AA?$AA@ 1002d39c     libucrt:get_qualified_locale.obj
 0002:000073b4       ??_C@_15HIEBHAIO@?$AAn?$AAz?$AA?$AA@ 1002d3b4     libucrt:get_qualified_locale.obj
 0002:000073bc       ??_C@_1BC@CHBCPFPI@?$AAp?$AAr?$AA?5?$AAc?$AAh?$AAi?$AAn?$AAa?$AA?$AA@ 1002d3bc     libucrt:get_qualified_locale.obj
 0002:000073d0       ??_C@_1BC@JAOIIFKD@?$AAp?$AAr?$AA?9?$AAc?$AAh?$AAi?$AAn?$AAa?$AA?$AA@ 1002d3d0     libucrt:get_qualified_locale.obj
 0002:000073e4       ??_C@_1BI@BEHPPHKC@?$AAp?$AAu?$AAe?$AAr?$AAt?$AAo?$AA?9?$AAr?$AAi?$AAc?$AAo?$AA?$AA@ 1002d3e4     libucrt:get_qualified_locale.obj
 0002:000073fc       ??_C@_1O@PAEOFKDI@?$AAs?$AAl?$AAo?$AAv?$AAa?$AAk?$AA?$AA@ 1002d3fc     libucrt:get_qualified_locale.obj
 0002:0000740c       ??_C@_1BK@FIHMCKAM@?$AAs?$AAo?$AAu?$AAt?$AAh?$AA?5?$AAa?$AAf?$AAr?$AAi?$AAc?$AAa?$AA?$AA@ 1002d40c     libucrt:get_qualified_locale.obj
 0002:00007428       ??_C@_1BI@NAEOODKB@?$AAs?$AAo?$AAu?$AAt?$AAh?$AA?5?$AAk?$AAo?$AAr?$AAe?$AAa?$AA?$AA@ 1002d428     libucrt:get_qualified_locale.obj
 0002:00007440       ??_C@_1BK@FBDGGIFF@?$AAs?$AAo?$AAu?$AAt?$AAh?$AA?9?$AAa?$AAf?$AAr?$AAi?$AAc?$AAa?$AA?$AA@ 1002d440     libucrt:get_qualified_locale.obj
 0002:0000745c       ??_C@_1BI@GHLEJDPK@?$AAs?$AAo?$AAu?$AAt?$AAh?$AA?9?$AAk?$AAo?$AAr?$AAe?$AAa?$AA?$AA@ 1002d45c     libucrt:get_qualified_locale.obj
 0002:00007474       ??_C@_1CE@PLHLOMJF@?$AAt?$AAr?$AAi?$AAn?$AAi?$AAd?$AAa?$AAd?$AA?5?$AA?$CG?$AA?5?$AAt?$AAo?$AAb?$AAa?$AAg?$AAo?$AA?$AA@ 1002d474     libucrt:get_qualified_locale.obj
 0002:00007498       ??_C@_1BO@MODIMHHI@?$AAu?$AAn?$AAi?$AAt?$AAe?$AAd?$AA?9?$AAk?$AAi?$AAn?$AAg?$AAd?$AAo?$AAm?$AA?$AA@ 1002d498     libucrt:get_qualified_locale.obj
 0002:000074b8       ??_C@_1BM@FFHJONBJ@?$AAu?$AAn?$AAi?$AAt?$AAe?$AAd?$AA?9?$AAs?$AAt?$AAa?$AAt?$AAe?$AAs?$AA?$AA@ 1002d4b8     libucrt:get_qualified_locale.obj
 0002:000074d4       ??_C@_17DNCLJFIF@?$AAA?$AAC?$AAP?$AA?$AA@ 1002d4d4     libucrt:get_qualified_locale.obj
 0002:000074dc       ??_C@_17CIKBIHLH@?$AAO?$AAC?$AAP?$AA?$AA@ 1002d4dc     libucrt:get_qualified_locale.obj
 0002:000074e4       ___rglangidNotDefault      1002d4e4     libucrt:getqloc_downlevel.obj
 0002:000074f8       ??_C@_01GBGANLPD@0?$AA@    1002d4f8     libucrt:cfout.obj
 0002:000074fc       ??_C@_05DNEBIAHO@1?$CDINF?$AA@ 1002d4fc     libucrt:cfout.obj
 0002:00007504       ??_C@_06IMKFLFPG@1?$CDQNAN?$AA@ 1002d504     libucrt:cfout.obj
 0002:0000750c       ??_C@_06PGGFOGJG@1?$CDSNAN?$AA@ 1002d50c     libucrt:cfout.obj
 0002:00007514       ??_C@_05PHHOCPM@1?$CDIND?$AA@ 1002d514     libucrt:cfout.obj
 0002:00007c40       ??_C@_15EMKDOKLE@?$AAa?$AAr?$AA?$AA@ 1002dc40     libucrt:lcidtoname_downlevel.obj
 0002:00007c48       ??_C@_15KNPADPLH@?$AAb?$AAg?$AA?$AA@ 1002dc48     libucrt:lcidtoname_downlevel.obj
 0002:00007c50       ??_C@_15EDMHLDMO@?$AAc?$AAa?$AA?$AA@ 1002dc50     libucrt:lcidtoname_downlevel.obj
 0002:00007c58       ??_C@_1O@BPEAJADD@?$AAz?$AAh?$AA?9?$AAC?$AAH?$AAS?$AA?$AA@ 1002dc58     libucrt:lcidtoname_downlevel.obj
 0002:00007c68       ??_C@_15LJNHCMNK@?$AAc?$AAs?$AA?$AA@ 1002dc68     libucrt:lcidtoname_downlevel.obj
 0002:00007c70       ??_C@_15FOMCIDHG@?$AAd?$AAa?$AA?$AA@ 1002dc70     libucrt:lcidtoname_downlevel.obj
 0002:00007c78       ??_C@_15NBKABECB@?$AAd?$AAe?$AA?$AA@ 1002dc78     libucrt:lcidtoname_downlevel.obj
 0002:00007c80       ??_C@_15GHPEIIAO@?$AAe?$AAl?$AA?$AA@ 1002dc80     libucrt:lcidtoname_downlevel.obj
 0002:00007c88       ??_C@_15MNPNEAIF@?$AAe?$AAn?$AA?$AA@ 1002dc88     libucrt:lcidtoname_downlevel.obj
 0002:00007c90       ??_C@_15GPIOMPMH@?$AAe?$AAs?$AA?$AA@ 1002dc90     libucrt:lcidtoname_downlevel.obj
 0002:00007c98       ??_C@_15NGLOAKJC@?$AAf?$AAi?$AA?$AA@ 1002dc98     libucrt:lcidtoname_downlevel.obj
 0002:00007ca0       ??_C@_15FBKGNKAM@?$AAf?$AAr?$AA?$AA@ 1002dca0     libucrt:lcidtoname_downlevel.obj
 0002:00007ca8       ??_C@_15KGGCNEFK@?$AAh?$AAe?$AA?$AA@ 1002dca8     libucrt:lcidtoname_downlevel.obj
 0002:00007cb0       ??_C@_15PGHLIDMF@?$AAh?$AAu?$AA?$AA@ 1002dcb0     libucrt:lcidtoname_downlevel.obj
 0002:00007cb8       ??_C@_15BIEMAPLM@?$AAi?$AAs?$AA?$AA@ 1002dcb8     libucrt:lcidtoname_downlevel.obj
 0002:00007cc0       ??_C@_15IFJLDHAF@?$AAi?$AAt?$AA?$AA@ 1002dcc0     libucrt:lcidtoname_downlevel.obj
 0002:00007cc8       ??_C@_15GEMIOCAG@?$AAj?$AAa?$AA?$AA@ 1002dcc8     libucrt:lcidtoname_downlevel.obj
 0002:00007cd0       ??_C@_15EPELEGJA@?$AAk?$AAo?$AA?$AA@ 1002dcd0     libucrt:lcidtoname_downlevel.obj
 0002:00007cd8       ??_C@_15NDDHIMN@?$AAn?$AAl?$AA?$AA@ 1002dcd8     libucrt:lcidtoname_downlevel.obj
 0002:00007ce0       ??_C@_15BPIGNHCD@?$AAn?$AAo?$AA?$AA@ 1002dce0     libucrt:lcidtoname_downlevel.obj
 0002:00007ce8       ??_C@_15DEOPBLCG@?$AAp?$AAl?$AA?$AA@ 1002dce8     libucrt:lcidtoname_downlevel.obj
 0002:00007cf0       ??_C@_15KBECGEFG@?$AAp?$AAt?$AA?$AA@ 1002dcf0     libucrt:lcidtoname_downlevel.obj
 0002:00007cf8       ??_C@_15GLJCBFMD@?$AAr?$AAo?$AA?$AA@ 1002dcf8     libucrt:lcidtoname_downlevel.obj
 0002:00007d00       ??_C@_15FEDGKCDI@?$AAr?$AAu?$AA?$AA@ 1002dd00     libucrt:lcidtoname_downlevel.obj
 0002:00007d08       ??_C@_15GLKMLLHM@?$AAh?$AAr?$AA?$AA@ 1002dd08     libucrt:lcidtoname_downlevel.obj
 0002:00007d10       ??_C@_15CPKMFBDB@?$AAs?$AAk?$AA?$AA@ 1002dd10     libucrt:lcidtoname_downlevel.obj
 0002:00007d18       ??_C@_15BAAIOGMK@?$AAs?$AAq?$AA?$AA@ 1002dd18     libucrt:lcidtoname_downlevel.obj
 0002:00007d20       ??_C@_15INNPNOHD@?$AAs?$AAv?$AA?$AA@ 1002dd20     libucrt:lcidtoname_downlevel.obj
 0002:00007d28       ??_C@_15CABMMOGH@?$AAt?$AAh?$AA?$AA@ 1002dd28     libucrt:lcidtoname_downlevel.obj
 0002:00007d30       ??_C@_15BPLIHJJM@?$AAt?$AAr?$AA?$AA@ 1002dd30     libucrt:lcidtoname_downlevel.obj
 0002:00007d38       ??_C@_15NEOEKKDJ@?$AAu?$AAr?$AA?$AA@ 1002dd38     libucrt:lcidtoname_downlevel.obj
 0002:00007d40       ??_C@_15NFICGAJK@?$AAi?$AAd?$AA?$AA@ 1002dd40     libucrt:lcidtoname_downlevel.obj
 0002:00007d48       ??_C@_15HPJPHDM@?$AAb?$AAe?$AA?$AA@ 1002dd48     libucrt:lcidtoname_downlevel.obj
 0002:00007d50       ??_C@_15LCHLGJII@?$AAs?$AAl?$AA?$AA@ 1002dd50     libucrt:lcidtoname_downlevel.obj
 0002:00007d58       ??_C@_15PCFJPHHO@?$AAe?$AAt?$AA?$AA@ 1002dd58     libucrt:lcidtoname_downlevel.obj
 0002:00007d60       ??_C@_15HPFPGODN@?$AAl?$AAv?$AA?$AA@ 1002dd60     libucrt:lcidtoname_downlevel.obj
 0002:00007d68       ??_C@_15NFFGKGLG@?$AAl?$AAt?$AA?$AA@ 1002dd68     libucrt:lcidtoname_downlevel.obj
 0002:00007d70       ??_C@_15BDAKCCHN@?$AAf?$AAa?$AA?$AA@ 1002dd70     libucrt:lcidtoname_downlevel.obj
 0002:00007d78       ??_C@_15NFGIAIAJ@?$AAv?$AAi?$AA?$AA@ 1002dd78     libucrt:lcidtoname_downlevel.obj
 0002:00007d80       ??_C@_15LMKNDMHN@?$AAh?$AAy?$AA?$AA@ 1002dd80     libucrt:lcidtoname_downlevel.obj
 0002:00007d88       ??_C@_15IJBHMCFL@?$AAa?$AAz?$AA?$AA@ 1002dd88     libucrt:lcidtoname_downlevel.obj
 0002:00007d90       ??_C@_15EKOFJABL@?$AAe?$AAu?$AA?$AA@ 1002dd90     libucrt:lcidtoname_downlevel.obj
 0002:00007d98       ??_C@_15BGHADCNK@?$AAm?$AAk?$AA?$AA@ 1002dd98     libucrt:lcidtoname_downlevel.obj
 0002:00007da0       ??_C@_15JDNICKHM@?$AAa?$AAf?$AA?$AA@ 1002dda0     libucrt:lcidtoname_downlevel.obj
 0002:00007da8       ??_C@_15KPJEDBKD@?$AAk?$AAa?$AA?$AA@ 1002dda8     libucrt:lcidtoname_downlevel.obj
 0002:00007db0       ??_C@_15PDNFFFEO@?$AAf?$AAo?$AA?$AA@ 1002ddb0     libucrt:lcidtoname_downlevel.obj
 0002:00007db8       ??_C@_15OMLEGLOC@?$AAh?$AAi?$AA?$AA@ 1002ddb8     libucrt:lcidtoname_downlevel.obj
 0002:00007dc0       ??_C@_15IDNNENKK@?$AAm?$AAs?$AA?$AA@ 1002ddc0     libucrt:lcidtoname_downlevel.obj
 0002:00007dc8       ??_C@_15MACJNBMH@?$AAk?$AAk?$AA?$AA@ 1002ddc8     libucrt:lcidtoname_downlevel.obj
 0002:00007dd0       ??_C@_15DKDJEOND@?$AAk?$AAy?$AA?$AA@ 1002ddd0     libucrt:lcidtoname_downlevel.obj
 0002:00007dd8       ??_C@_15DFGDLJBG@?$AAs?$AAw?$AA?$AA@ 1002ddd8     libucrt:lcidtoname_downlevel.obj
 0002:00007de0       ??_C@_15BBFAICNG@?$AAu?$AAz?$AA?$AA@ 1002dde0     libucrt:lcidtoname_downlevel.obj
 0002:00007de8       ??_C@_15DKNDCGEA@?$AAt?$AAt?$AA?$AA@ 1002dde8     libucrt:lcidtoname_downlevel.obj
 0002:00007df0       ??_C@_15MGIFMDPL@?$AAp?$AAa?$AA?$AA@ 1002ddf0     libucrt:lcidtoname_downlevel.obj
 0002:00007df8       ??_C@_15HCNDBBA@?$AAg?$AAu?$AA?$AA@ 1002ddf8     libucrt:lcidtoname_downlevel.obj
 0002:00007e00       ??_C@_15FNBEIBON@?$AAt?$AAa?$AA?$AA@ 1002de00     libucrt:lcidtoname_downlevel.obj
 0002:00007e08       ??_C@_15NCHGBGLK@?$AAt?$AAe?$AA?$AA@ 1002de08     libucrt:lcidtoname_downlevel.obj
 0002:00007e10       ??_C@_15PHPHCBPF@?$AAk?$AAn?$AA?$AA@ 1002de10     libucrt:lcidtoname_downlevel.obj
 0002:00007e18       ??_C@_15DLGBCKMP@?$AAm?$AAr?$AA?$AA@ 1002de18     libucrt:lcidtoname_downlevel.obj
 0002:00007e20       ??_C@_15EABBLBFF@?$AAs?$AAa?$AA?$AA@ 1002de20     libucrt:lcidtoname_downlevel.obj
 0002:00007e28       ??_C@_15CBKOMCOI@?$AAm?$AAn?$AA?$AA@ 1002de28     libucrt:lcidtoname_downlevel.obj
 0002:00007e30       ??_C@_15CKDMCJAF@?$AAg?$AAl?$AA?$AA@ 1002de30     libucrt:lcidtoname_downlevel.obj
 0002:00007e38       ??_C@_17CNJFBPG@?$AAk?$AAo?$AAk?$AA?$AA@ 1002de38     libucrt:lcidtoname_downlevel.obj
 0002:00007e40       ??_C@_17FFBJICPL@?$AAs?$AAy?$AAr?$AA?$AA@ 1002de40     libucrt:lcidtoname_downlevel.obj
 0002:00007e48       ??_C@_17KPNDCPAF@?$AAd?$AAi?$AAv?$AA?$AA@ 1002de48     libucrt:lcidtoname_downlevel.obj
 0002:00007e50       ??_C@_11LOCGONAA@?$AA?$AA@ 1002de50     libucrt:lcidtoname_downlevel.obj
 0002:00007e54       ??_C@_1M@OKAHONE@?$AAa?$AAr?$AA?9?$AAS?$AAA?$AA?$AA@ 1002de54     libucrt:lcidtoname_downlevel.obj
 0002:00007e60       ??_C@_1M@FFFIGIGK@?$AAb?$AAg?$AA?9?$AAB?$AAG?$AA?$AA@ 1002de60     libucrt:lcidtoname_downlevel.obj
 0002:00007e6c       ??_C@_1M@BJNKEDC@?$AAc?$AAa?$AA?9?$AAE?$AAS?$AA?$AA@ 1002de6c     libucrt:lcidtoname_downlevel.obj
 0002:00007e78       ??_C@_1M@IJJHFJHA@?$AAc?$AAs?$AA?9?$AAC?$AAZ?$AA?$AA@ 1002de78     libucrt:lcidtoname_downlevel.obj
 0002:00007e84       ??_C@_1M@CLPEOBGI@?$AAd?$AAa?$AA?9?$AAD?$AAK?$AA?$AA@ 1002de84     libucrt:lcidtoname_downlevel.obj
 0002:00007e90       ??_C@_1M@MCMADGCB@?$AAd?$AAe?$AA?9?$AAD?$AAE?$AA?$AA@ 1002de90     libucrt:lcidtoname_downlevel.obj
 0002:00007e9c       ??_C@_1M@OOCKEMAM@?$AAe?$AAl?$AA?9?$AAG?$AAR?$AA?$AA@ 1002de9c     libucrt:lcidtoname_downlevel.obj
 0002:00007ea8       ??_C@_1M@DDNJFGID@?$AAf?$AAi?$AA?9?$AAF?$AAI?$AA?$AA@ 1002dea8     libucrt:lcidtoname_downlevel.obj
 0002:00007eb4       ??_C@_1M@GLIPPMAC@?$AAf?$AAr?$AA?9?$AAF?$AAR?$AA?$AA@ 1002deb4     libucrt:lcidtoname_downlevel.obj
 0002:00007ec0       ??_C@_1M@GFMCHPE@?$AAh?$AAe?$AA?9?$AAI?$AAL?$AA?$AA@ 1002dec0     libucrt:lcidtoname_downlevel.obj
 0002:00007ecc       ??_C@_1M@MHLPGNKM@?$AAh?$AAu?$AA?9?$AAH?$AAU?$AA?$AA@ 1002decc     libucrt:lcidtoname_downlevel.obj
 0002:00007ed8       ??_C@_1M@LPDDNNPN@?$AAi?$AAs?$AA?9?$AAI?$AAS?$AA?$AA@ 1002ded8     libucrt:lcidtoname_downlevel.obj
 0002:00007ee4       ??_C@_1M@MADIPODN@?$AAi?$AAt?$AA?9?$AAI?$AAT?$AA?$AA@ 1002dee4     libucrt:lcidtoname_downlevel.obj
 0002:00007ef0       ??_C@_1M@IHBJJGG@?$AAn?$AAl?$AA?9?$AAN?$AAL?$AA?$AA@ 1002def0     libucrt:lcidtoname_downlevel.obj
 0002:00007efc       ??_C@_1M@EANAGDL@?$AAn?$AAb?$AA?9?$AAN?$AAO?$AA?$AA@ 1002defc     libucrt:lcidtoname_downlevel.obj
 0002:00007f08       ??_C@_1M@NEIEMEGP@?$AAp?$AAl?$AA?9?$AAP?$AAL?$AA?$AA@ 1002df08     libucrt:lcidtoname_downlevel.obj
 0002:00007f14       ??_C@_1M@BOCFIGEP@?$AAp?$AAt?$AA?9?$AAB?$AAR?$AA?$AA@ 1002df14     libucrt:lcidtoname_downlevel.obj
 0002:00007f20       ??_C@_1M@IMPFOPBG@?$AAr?$AAo?$AA?9?$AAR?$AAO?$AA?$AA@ 1002df20     libucrt:lcidtoname_downlevel.obj
 0002:00007f2c       ??_C@_1M@IDNNEJMM@?$AAr?$AAu?$AA?9?$AAR?$AAU?$AA?$AA@ 1002df2c     libucrt:lcidtoname_downlevel.obj
 0002:00007f38       ??_C@_1M@LILEEOGM@?$AAh?$AAr?$AA?9?$AAH?$AAR?$AA?$AA@ 1002df38     libucrt:lcidtoname_downlevel.obj
 0002:00007f44       ??_C@_1M@FKIFEHPB@?$AAs?$AAk?$AA?9?$AAS?$AAK?$AA?$AA@ 1002df44     libucrt:lcidtoname_downlevel.obj
 0002:00007f50       ??_C@_1M@LJMAMNPJ@?$AAs?$AAq?$AA?9?$AAA?$AAL?$AA?$AA@ 1002df50     libucrt:lcidtoname_downlevel.obj
 0002:00007f5c       ??_C@_1M@GIAKDKJK@?$AAs?$AAv?$AA?9?$AAS?$AAE?$AA?$AA@ 1002df5c     libucrt:lcidtoname_downlevel.obj
 0002:00007f68       ??_C@_1M@MKJKIKCL@?$AAt?$AAh?$AA?9?$AAT?$AAH?$AA?$AA@ 1002df68     libucrt:lcidtoname_downlevel.obj
 0002:00007f74       ??_C@_1M@MFLCCMPB@?$AAt?$AAr?$AA?9?$AAT?$AAR?$AA?$AA@ 1002df74     libucrt:lcidtoname_downlevel.obj
 0002:00007f80       ??_C@_1M@OIJHDKJN@?$AAu?$AAr?$AA?9?$AAP?$AAK?$AA?$AA@ 1002df80     libucrt:lcidtoname_downlevel.obj
 0002:00007f8c       ??_C@_1M@LHIPCIEK@?$AAi?$AAd?$AA?9?$AAI?$AAD?$AA?$AA@ 1002df8c     libucrt:lcidtoname_downlevel.obj
 0002:00007f98       ??_C@_1M@MFMOBGI@?$AAu?$AAk?$AA?9?$AAU?$AAA?$AA?$AA@ 1002df98     libucrt:lcidtoname_downlevel.obj
 0002:00007fa4       ??_C@_1M@OBGLJIPL@?$AAb?$AAe?$AA?9?$AAB?$AAY?$AA?$AA@ 1002dfa4     libucrt:lcidtoname_downlevel.obj
 0002:00007fb0       ??_C@_1M@BCFAJEAD@?$AAs?$AAl?$AA?9?$AAS?$AAI?$AA?$AA@ 1002dfb0     libucrt:lcidtoname_downlevel.obj
 0002:00007fbc       ??_C@_1M@FKFFEDDN@?$AAe?$AAt?$AA?9?$AAE?$AAE?$AA?$AA@ 1002dfbc     libucrt:lcidtoname_downlevel.obj
 0002:00007fc8       ??_C@_1M@KGKKAACI@?$AAl?$AAv?$AA?9?$AAL?$AAV?$AA?$AA@ 1002dfc8     libucrt:lcidtoname_downlevel.obj
 0002:00007fd4       ??_C@_1M@IFGBIJO@?$AAl?$AAt?$AA?9?$AAL?$AAT?$AA?$AA@ 1002dfd4     libucrt:lcidtoname_downlevel.obj
 0002:00007fe0       ??_C@_1M@FGEAHEDM@?$AAf?$AAa?$AA?9?$AAI?$AAR?$AA?$AA@ 1002dfe0     libucrt:lcidtoname_downlevel.obj
 0002:00007fec       ??_C@_1M@KBMAIBFN@?$AAv?$AAi?$AA?9?$AAV?$AAN?$AA?$AA@ 1002dfec     libucrt:lcidtoname_downlevel.obj
 0002:00007ff8       ??_C@_1M@GPCBKDJK@?$AAh?$AAy?$AA?9?$AAA?$AAM?$AA?$AA@ 1002dff8     libucrt:lcidtoname_downlevel.obj
 0002:00008004       ??_C@_1BG@BECMDDJB@?$AAa?$AAz?$AA?9?$AAA?$AAZ?$AA?9?$AAL?$AAa?$AAt?$AAn?$AA?$AA@ 1002e004     libucrt:lcidtoname_downlevel.obj
 0002:0000801c       ??_C@_1M@MAOFCAEA@?$AAe?$AAu?$AA?9?$AAE?$AAS?$AA?$AA@ 1002e01c     libucrt:lcidtoname_downlevel.obj
 0002:00008028       ??_C@_1M@IGHABKPI@?$AAm?$AAk?$AA?9?$AAM?$AAK?$AA?$AA@ 1002e028     libucrt:lcidtoname_downlevel.obj
 0002:00008034       ??_C@_1M@IAIGNEJG@?$AAt?$AAn?$AA?9?$AAZ?$AAA?$AA?$AA@ 1002e034     libucrt:lcidtoname_downlevel.obj
 0002:00008040       ??_C@_1M@IIJCOJFA@?$AAx?$AAh?$AA?9?$AAZ?$AAA?$AA?$AA@ 1002e040     libucrt:lcidtoname_downlevel.obj
 0002:0000804c       ??_C@_1M@LGPJHNJH@?$AAz?$AAu?$AA?9?$AAZ?$AAA?$AA?$AA@ 1002e04c     libucrt:lcidtoname_downlevel.obj
 0002:00008058       ??_C@_1M@HOKAOIO@?$AAa?$AAf?$AA?9?$AAZ?$AAA?$AA?$AA@ 1002e058     libucrt:lcidtoname_downlevel.obj
 0002:00008064       ??_C@_1M@DPCLHLIE@?$AAk?$AAa?$AA?9?$AAG?$AAE?$AA?$AA@ 1002e064     libucrt:lcidtoname_downlevel.obj
 0002:00008070       ??_C@_1M@BLKMHJBI@?$AAf?$AAo?$AA?9?$AAF?$AAO?$AA?$AA@ 1002e070     libucrt:lcidtoname_downlevel.obj
 0002:0000807c       ??_C@_1M@LGGJAPPB@?$AAh?$AAi?$AA?9?$AAI?$AAN?$AA?$AA@ 1002e07c     libucrt:lcidtoname_downlevel.obj
 0002:00008088       ??_C@_1M@FIKPIHFE@?$AAm?$AAt?$AA?9?$AAM?$AAT?$AA?$AA@ 1002e088     libucrt:lcidtoname_downlevel.obj
 0002:00008094       ??_C@_1M@HEGGPBFA@?$AAs?$AAe?$AA?9?$AAN?$AAO?$AA?$AA@ 1002e094     libucrt:lcidtoname_downlevel.obj
 0002:000080a0       ??_C@_1M@EIBJEEPA@?$AAm?$AAs?$AA?9?$AAM?$AAY?$AA?$AA@ 1002e0a0     libucrt:lcidtoname_downlevel.obj
 0002:000080ac       ??_C@_1M@FHLBGMPP@?$AAk?$AAk?$AA?9?$AAK?$AAZ?$AA?$AA@ 1002e0ac     libucrt:lcidtoname_downlevel.obj
 0002:000080b8       ??_C@_1M@NGJJLCGI@?$AAk?$AAy?$AA?9?$AAK?$AAG?$AA?$AA@ 1002e0b8     libucrt:lcidtoname_downlevel.obj
 0002:000080c4       ??_C@_1M@GIENNBFC@?$AAs?$AAw?$AA?9?$AAK?$AAE?$AA?$AA@ 1002e0c4     libucrt:lcidtoname_downlevel.obj
 0002:000080d0       ??_C@_1BG@NDGMJIMJ@?$AAu?$AAz?$AA?9?$AAU?$AAZ?$AA?9?$AAL?$AAa?$AAt?$AAn?$AA?$AA@ 1002e0d0     libucrt:lcidtoname_downlevel.obj
 0002:000080e8       ??_C@_1M@IDCCIHBC@?$AAt?$AAt?$AA?9?$AAR?$AAU?$AA?$AA@ 1002e0e8     libucrt:lcidtoname_downlevel.obj
 0002:000080f4       ??_C@_1M@LOICPMOJ@?$AAb?$AAn?$AA?9?$AAI?$AAN?$AA?$AA@ 1002e0f4     libucrt:lcidtoname_downlevel.obj
 0002:00008100       ??_C@_1M@KPKKNEAH@?$AAp?$AAa?$AA?9?$AAI?$AAN?$AA?$AA@ 1002e100     libucrt:lcidtoname_downlevel.obj
 0002:0000810c       ??_C@_1M@PJGPPBOG@?$AAg?$AAu?$AA?9?$AAI?$AAN?$AA?$AA@ 1002e10c     libucrt:lcidtoname_downlevel.obj
 0002:00008118       ??_C@_1M@KMKMOPHI@?$AAt?$AAa?$AA?9?$AAI?$AAN?$AA?$AA@ 1002e118     libucrt:lcidtoname_downlevel.obj
 0002:00008124       ??_C@_1M@KFEHEPAC@?$AAt?$AAe?$AA?9?$AAI?$AAN?$AA?$AA@ 1002e124     libucrt:lcidtoname_downlevel.obj
 0002:00008130       ??_C@_1M@CDCLMGHI@?$AAk?$AAn?$AA?9?$AAI?$AAN?$AA?$AA@ 1002e130     libucrt:lcidtoname_downlevel.obj
 0002:0000813c       ??_C@_1M@MIODLDKF@?$AAm?$AAl?$AA?9?$AAI?$AAN?$AA?$AA@ 1002e13c     libucrt:lcidtoname_downlevel.obj
 0002:00008148       ??_C@_1M@PBIEACPO@?$AAm?$AAr?$AA?9?$AAI?$AAN?$AA?$AA@ 1002e148     libucrt:lcidtoname_downlevel.obj
 0002:00008154       ??_C@_1M@NIDEAGPH@?$AAs?$AAa?$AA?9?$AAI?$AAN?$AA?$AA@ 1002e154     libucrt:lcidtoname_downlevel.obj
 0002:00008160       ??_C@_1M@FHIHCBIO@?$AAm?$AAn?$AA?9?$AAM?$AAN?$AA?$AA@ 1002e160     libucrt:lcidtoname_downlevel.obj
 0002:0000816c       ??_C@_1M@JAIJPENP@?$AAc?$AAy?$AA?9?$AAG?$AAB?$AA?$AA@ 1002e16c     libucrt:lcidtoname_downlevel.obj
 0002:00008178       ??_C@_1M@PHGFBEPN@?$AAg?$AAl?$AA?9?$AAE?$AAS?$AA?$AA@ 1002e178     libucrt:lcidtoname_downlevel.obj
 0002:00008184       ??_C@_1O@KPIPDNCP@?$AAk?$AAo?$AAk?$AA?9?$AAI?$AAN?$AA?$AA@ 1002e184     libucrt:lcidtoname_downlevel.obj
 0002:00008194       ??_C@_1O@KNHJLDJA@?$AAs?$AAy?$AAr?$AA?9?$AAS?$AAY?$AA?$AA@ 1002e194     libucrt:lcidtoname_downlevel.obj
 0002:000081a4       ??_C@_1O@MKEKBLAH@?$AAd?$AAi?$AAv?$AA?9?$AAM?$AAV?$AA?$AA@ 1002e1a4     libucrt:lcidtoname_downlevel.obj
 0002:000081b4       ??_C@_1O@OHDCKDDF@?$AAq?$AAu?$AAz?$AA?9?$AAB?$AAO?$AA?$AA@ 1002e1b4     libucrt:lcidtoname_downlevel.obj
 0002:000081c4       ??_C@_1M@LEPJNLFD@?$AAn?$AAs?$AA?9?$AAZ?$AAA?$AA?$AA@ 1002e1c4     libucrt:lcidtoname_downlevel.obj
 0002:000081d0       ??_C@_1M@OMLEIIJB@?$AAm?$AAi?$AA?9?$AAN?$AAZ?$AA?$AA@ 1002e1d0     libucrt:lcidtoname_downlevel.obj
 0002:000081dc       ??_C@_1M@PMPEAILG@?$AAa?$AAr?$AA?9?$AAI?$AAQ?$AA?$AA@ 1002e1dc     libucrt:lcidtoname_downlevel.obj
 0002:000081e8       ??_C@_1M@CNKPNOEE@?$AAd?$AAe?$AA?9?$AAC?$AAH?$AA?$AA@ 1002e1e8     libucrt:lcidtoname_downlevel.obj
 0002:000081f4       ??_C@_1M@LKMGMLKO@?$AAe?$AAn?$AA?9?$AAG?$AAB?$AA?$AA@ 1002e1f4     libucrt:lcidtoname_downlevel.obj
 0002:00008200       ??_C@_1M@PGKJFFGL@?$AAe?$AAs?$AA?9?$AAM?$AAX?$AA?$AA@ 1002e200     libucrt:lcidtoname_downlevel.obj
 0002:0000820c       ??_C@_1M@DNNANBDC@?$AAf?$AAr?$AA?9?$AAB?$AAE?$AA?$AA@ 1002e20c     libucrt:lcidtoname_downlevel.obj
 0002:00008218       ??_C@_1M@HLGMDFHM@?$AAi?$AAt?$AA?9?$AAC?$AAH?$AA?$AA@ 1002e218     libucrt:lcidtoname_downlevel.obj
 0002:00008224       ??_C@_1M@CLLBGJH@?$AAn?$AAl?$AA?9?$AAB?$AAE?$AA?$AA@ 1002e224     libucrt:lcidtoname_downlevel.obj
 0002:00008230       ??_C@_1M@BODBOGLF@?$AAn?$AAn?$AA?9?$AAN?$AAO?$AA?$AA@ 1002e230     libucrt:lcidtoname_downlevel.obj
 0002:0000823c       ??_C@_1M@HFFAHKAD@?$AAp?$AAt?$AA?9?$AAP?$AAT?$AA?$AA@ 1002e23c     libucrt:lcidtoname_downlevel.obj
 0002:00008248       ??_C@_1BG@LNOAKHIE@?$AAs?$AAr?$AA?9?$AAS?$AAP?$AA?9?$AAL?$AAa?$AAt?$AAn?$AA?$AA@ 1002e248     libucrt:lcidtoname_downlevel.obj
 0002:00008260       ??_C@_1M@HBMHBGAK@?$AAs?$AAv?$AA?9?$AAF?$AAI?$AA?$AA@ 1002e260     libucrt:lcidtoname_downlevel.obj
 0002:0000826c       ??_C@_1BG@DGCJGJBE@?$AAa?$AAz?$AA?9?$AAA?$AAZ?$AA?9?$AAC?$AAy?$AAr?$AAl?$AA?$AA@ 1002e26c     libucrt:lcidtoname_downlevel.obj
 0002:00008284       ??_C@_1M@KEJDAAHB@?$AAs?$AAe?$AA?9?$AAS?$AAE?$AA?$AA@ 1002e284     libucrt:lcidtoname_downlevel.obj
 0002:00008290       ??_C@_1M@HEIBJJAD@?$AAm?$AAs?$AA?9?$AAB?$AAN?$AA?$AA@ 1002e290     libucrt:lcidtoname_downlevel.obj
 0002:0000829c       ??_C@_1BG@PBGJMCEM@?$AAu?$AAz?$AA?9?$AAU?$AAZ?$AA?9?$AAC?$AAy?$AAr?$AAl?$AA?$AA@ 1002e29c     libucrt:lcidtoname_downlevel.obj
 0002:000082b4       ??_C@_1O@LAOBCMDF@?$AAq?$AAu?$AAz?$AA?9?$AAE?$AAC?$AA?$AA@ 1002e2b4     libucrt:lcidtoname_downlevel.obj
 0002:000082c4       ??_C@_1M@POEEMAIO@?$AAa?$AAr?$AA?9?$AAE?$AAG?$AA?$AA@ 1002e2c4     libucrt:lcidtoname_downlevel.obj
 0002:000082d0       ??_C@_1M@EFAKDEDL@?$AAz?$AAh?$AA?9?$AAH?$AAK?$AA?$AA@ 1002e2d0     libucrt:lcidtoname_downlevel.obj
 0002:000082dc       ??_C@_1M@HKKIJHGI@?$AAd?$AAe?$AA?9?$AAA?$AAT?$AA?$AA@ 1002e2dc     libucrt:lcidtoname_downlevel.obj
 0002:000082e8       ??_C@_1M@KBFBEHJF@?$AAe?$AAn?$AA?9?$AAA?$AAU?$AA?$AA@ 1002e2e8     libucrt:lcidtoname_downlevel.obj
 0002:000082f4       ??_C@_1M@MNPLFAAH@?$AAe?$AAs?$AA?9?$AAE?$AAS?$AA?$AA@ 1002e2f4     libucrt:lcidtoname_downlevel.obj
 0002:00008300       ??_C@_1M@HJOOJFMA@?$AAf?$AAr?$AA?9?$AAC?$AAA?$AA?$AA@ 1002e300     libucrt:lcidtoname_downlevel.obj
 0002:0000830c       ??_C@_1BG@JPOFPNAB@?$AAs?$AAr?$AA?9?$AAS?$AAP?$AA?9?$AAC?$AAy?$AAr?$AAl?$AA?$AA@ 1002e30c     libucrt:lcidtoname_downlevel.obj
 0002:00008324       ??_C@_1M@LNFOCMOB@?$AAs?$AAe?$AA?9?$AAF?$AAI?$AA?$AA@ 1002e324     libucrt:lcidtoname_downlevel.obj
 0002:00008330       ??_C@_1O@MGJBOAMB@?$AAq?$AAu?$AAz?$AA?9?$AAP?$AAE?$AA?$AA@ 1002e330     libucrt:lcidtoname_downlevel.obj
 0002:00008340       ??_C@_1M@GJINLBOK@?$AAa?$AAr?$AA?9?$AAL?$AAY?$AA?$AA@ 1002e340     libucrt:lcidtoname_downlevel.obj
 0002:0000834c       ??_C@_1M@GGMNHJNL@?$AAz?$AAh?$AA?9?$AAS?$AAG?$AA?$AA@ 1002e34c     libucrt:lcidtoname_downlevel.obj
 0002:00008358       ??_C@_1M@HOIKODND@?$AAd?$AAe?$AA?9?$AAL?$AAU?$AA?$AA@ 1002e358     libucrt:lcidtoname_downlevel.obj
 0002:00008364       ??_C@_1M@DDOCCGFG@?$AAe?$AAn?$AA?9?$AAC?$AAA?$AA?$AA@ 1002e364     libucrt:lcidtoname_downlevel.obj
 0002:00008370       ??_C@_1M@BNOEMJLF@?$AAe?$AAs?$AA?9?$AAG?$AAT?$AA?$AA@ 1002e370     libucrt:lcidtoname_downlevel.obj
 0002:0000837c       ??_C@_1M@EOGNKEK@?$AAf?$AAr?$AA?9?$AAC?$AAH?$AA?$AA@ 1002e37c     libucrt:lcidtoname_downlevel.obj
 0002:00008388       ??_C@_1M@FLIDJFHL@?$AAh?$AAr?$AA?9?$AAB?$AAA?$AA?$AA@ 1002e388     libucrt:lcidtoname_downlevel.obj
 0002:00008394       ??_C@_1O@FMCELNAJ@?$AAs?$AAm?$AAj?$AA?9?$AAN?$AAO?$AA?$AA@ 1002e394     libucrt:lcidtoname_downlevel.obj
 0002:000083a4       ??_C@_1M@JHGLJMGJ@?$AAa?$AAr?$AA?9?$AAD?$AAZ?$AA?$AA@ 1002e3a4     libucrt:lcidtoname_downlevel.obj
 0002:000083b0       ??_C@_1M@JKKFDCNP@?$AAz?$AAh?$AA?9?$AAM?$AAO?$AA?$AA@ 1002e3b0     libucrt:lcidtoname_downlevel.obj
 0002:000083bc       ??_C@_1M@GEEFALPE@?$AAd?$AAe?$AA?9?$AAL?$AAI?$AA?$AA@ 1002e3bc     libucrt:lcidtoname_downlevel.obj
 0002:000083c8       ??_C@_1M@IGEOFBG@?$AAe?$AAn?$AA?9?$AAN?$AAZ?$AA?$AA@ 1002e3c8     libucrt:lcidtoname_downlevel.obj
 0002:000083d4       ??_C@_1M@KDBONEHP@?$AAe?$AAs?$AA?9?$AAC?$AAR?$AA?$AA@ 1002e3d4     libucrt:lcidtoname_downlevel.obj
 0002:000083e0       ??_C@_1M@FHMDOHNN@?$AAf?$AAr?$AA?9?$AAL?$AAU?$AA?$AA@ 1002e3e0     libucrt:lcidtoname_downlevel.obj
 0002:000083ec       ??_C@_1BG@NFKKMAFG@?$AAb?$AAs?$AA?9?$AAB?$AAA?$AA?9?$AAL?$AAa?$AAt?$AAn?$AA?$AA@ 1002e3ec     libucrt:lcidtoname_downlevel.obj
 0002:00008404       ??_C@_1O@IMNBEMCI@?$AAs?$AAm?$AAj?$AA?9?$AAS?$AAE?$AA?$AA@ 1002e404     libucrt:lcidtoname_downlevel.obj
 0002:00008414       ??_C@_1M@DHHMBNDP@?$AAa?$AAr?$AA?9?$AAM?$AAA?$AA?$AA@ 1002e414     libucrt:lcidtoname_downlevel.obj
 0002:00008420       ??_C@_1M@BNBLJCGH@?$AAe?$AAn?$AA?9?$AAI?$AAE?$AA?$AA@ 1002e420     libucrt:lcidtoname_downlevel.obj
 0002:0000842c       ??_C@_1M@GEPAFMDL@?$AAe?$AAs?$AA?9?$AAP?$AAA?$AA?$AA@ 1002e42c     libucrt:lcidtoname_downlevel.obj
 0002:00008438       ??_C@_1M@OJONDMDL@?$AAf?$AAr?$AA?9?$AAM?$AAC?$AA?$AA@ 1002e438     libucrt:lcidtoname_downlevel.obj
 0002:00008444       ??_C@_1BG@OBCNFJB@?$AAs?$AAr?$AA?9?$AAB?$AAA?$AA?9?$AAL?$AAa?$AAt?$AAn?$AA?$AA@ 1002e444     libucrt:lcidtoname_downlevel.obj
 0002:0000845c       ??_C@_1O@KEMEEGPO@?$AAs?$AAm?$AAa?$AA?9?$AAN?$AAO?$AA?$AA@ 1002e45c     libucrt:lcidtoname_downlevel.obj
 0002:0000846c       ??_C@_1M@ELMGFODK@?$AAa?$AAr?$AA?9?$AAT?$AAN?$AA?$AA@ 1002e46c     libucrt:lcidtoname_downlevel.obj
 0002:00008478       ??_C@_1M@BHDLHFAF@?$AAe?$AAn?$AA?9?$AAZ?$AAA?$AA?$AA@ 1002e478     libucrt:lcidtoname_downlevel.obj
 0002:00008484       ??_C@_1M@BMGIGLIF@?$AAe?$AAs?$AA?9?$AAD?$AAO?$AA?$AA@ 1002e484     libucrt:lcidtoname_downlevel.obj
 0002:00008490       ??_C@_1BG@CMBHIPBE@?$AAs?$AAr?$AA?9?$AAB?$AAA?$AA?9?$AAC?$AAy?$AAr?$AAl?$AA?$AA@ 1002e490     libucrt:lcidtoname_downlevel.obj
 0002:000084a8       ??_C@_1O@HEDBLHNP@?$AAs?$AAm?$AAa?$AA?9?$AAS?$AAE?$AA?$AA@ 1002e4a8     libucrt:lcidtoname_downlevel.obj
 0002:000084b8       ??_C@_1M@DAGCADIM@?$AAa?$AAr?$AA?9?$AAO?$AAM?$AA?$AA@ 1002e4b8     libucrt:lcidtoname_downlevel.obj
 0002:000084c4       ??_C@_1M@FODLMICG@?$AAe?$AAn?$AA?9?$AAJ?$AAM?$AA?$AA@ 1002e4c4     libucrt:lcidtoname_downlevel.obj
 0002:000084d0       ??_C@_1M@DNMLCIHB@?$AAe?$AAs?$AA?9?$AAV?$AAE?$AA?$AA@ 1002e4d0     libucrt:lcidtoname_downlevel.obj
 0002:000084dc       ??_C@_1O@EOKHMKJK@?$AAs?$AAm?$AAs?$AA?9?$AAF?$AAI?$AA?$AA@ 1002e4dc     libucrt:lcidtoname_downlevel.obj
 0002:000084ec       ??_C@_1M@CAFJMKOF@?$AAa?$AAr?$AA?9?$AAY?$AAE?$AA?$AA@ 1002e4ec     libucrt:lcidtoname_downlevel.obj
 0002:000084f8       ??_C@_1M@CBFHIJLI@?$AAe?$AAn?$AA?9?$AAC?$AAB?$AA?$AA@ 1002e4f8     libucrt:lcidtoname_downlevel.obj
 0002:00008504       ??_C@_1M@BGNFLDN@?$AAe?$AAs?$AA?9?$AAC?$AAO?$AA?$AA@ 1002e504     libucrt:lcidtoname_downlevel.obj
 0002:00008510       ??_C@_1O@JMPHMAMC@?$AAs?$AAm?$AAn?$AA?9?$AAF?$AAI?$AA?$AA@ 1002e510     libucrt:lcidtoname_downlevel.obj
 0002:00008520       ??_C@_1M@JLANABKE@?$AAa?$AAr?$AA?9?$AAS?$AAY?$AA?$AA@ 1002e520     libucrt:lcidtoname_downlevel.obj
 0002:0000852c       ??_C@_1M@HPKGCFGN@?$AAe?$AAn?$AA?9?$AAB?$AAZ?$AA?$AA@ 1002e52c     libucrt:lcidtoname_downlevel.obj
 0002:00008538       ??_C@_1M@OLJCMLGM@?$AAe?$AAs?$AA?9?$AAP?$AAE?$AA?$AA@ 1002e538     libucrt:lcidtoname_downlevel.obj
 0002:00008544       ??_C@_1M@MKKGFKLE@?$AAa?$AAr?$AA?9?$AAJ?$AAO?$AA?$AA@ 1002e544     libucrt:lcidtoname_downlevel.obj
 0002:00008550       ??_C@_1M@EKPGLDNI@?$AAe?$AAn?$AA?9?$AAT?$AAT?$AA?$AA@ 1002e550     libucrt:lcidtoname_downlevel.obj
 0002:0000855c       ??_C@_1M@OONGHFHE@?$AAe?$AAs?$AA?9?$AAA?$AAR?$AA?$AA@ 1002e55c     libucrt:lcidtoname_downlevel.obj
 0002:00008568       ??_C@_1M@OOJFGBHE@?$AAa?$AAr?$AA?9?$AAL?$AAB?$AA?$AA@ 1002e568     libucrt:lcidtoname_downlevel.obj
 0002:00008574       ??_C@_1M@GCEJHNEG@?$AAe?$AAn?$AA?9?$AAZ?$AAW?$AA?$AA@ 1002e574     libucrt:lcidtoname_downlevel.obj
 0002:00008580       ??_C@_1M@JNOCAHJI@?$AAe?$AAs?$AA?9?$AAE?$AAC?$AA?$AA@ 1002e580     libucrt:lcidtoname_downlevel.obj
 0002:0000858c       ??_C@_1M@JEFHPGGB@?$AAa?$AAr?$AA?9?$AAK?$AAW?$AA?$AA@ 1002e58c     libucrt:lcidtoname_downlevel.obj
 0002:00008598       ??_C@_1M@MLKIBJOJ@?$AAe?$AAn?$AA?9?$AAP?$AAH?$AA?$AA@ 1002e598     libucrt:lcidtoname_downlevel.obj
 0002:000085a4       ??_C@_1M@BDNIPEND@?$AAe?$AAs?$AA?9?$AAC?$AAL?$AA?$AA@ 1002e5a4     libucrt:lcidtoname_downlevel.obj
 0002:000085b0       ??_C@_1M@MPNMEKBD@?$AAa?$AAr?$AA?9?$AAA?$AAE?$AA?$AA@ 1002e5b0     libucrt:lcidtoname_downlevel.obj
 0002:000085bc       ??_C@_1M@KBJALCPI@?$AAe?$AAs?$AA?9?$AAU?$AAY?$AA?$AA@ 1002e5bc     libucrt:lcidtoname_downlevel.obj
 0002:000085c8       ??_C@_1M@LLCCOAGA@?$AAa?$AAr?$AA?9?$AAB?$AAH?$AA?$AA@ 1002e5c8     libucrt:lcidtoname_downlevel.obj
 0002:000085d4       ??_C@_1M@PBFNCDEL@?$AAe?$AAs?$AA?9?$AAP?$AAY?$AA?$AA@ 1002e5d4     libucrt:lcidtoname_downlevel.obj
 0002:000085e0       ??_C@_1M@EDGINPNP@?$AAa?$AAr?$AA?9?$AAQ?$AAA?$AA?$AA@ 1002e5e0     libucrt:lcidtoname_downlevel.obj
 0002:000085ec       ??_C@_1M@MKDBIIJI@?$AAe?$AAs?$AA?9?$AAB?$AAO?$AA?$AA@ 1002e5ec     libucrt:lcidtoname_downlevel.obj
 0002:000085f8       ??_C@_1M@CPKKEBLD@?$AAe?$AAs?$AA?9?$AAS?$AAV?$AA?$AA@ 1002e5f8     libucrt:lcidtoname_downlevel.obj
 0002:00008604       ??_C@_1M@NDBGMMJL@?$AAe?$AAs?$AA?9?$AAH?$AAN?$AA?$AA@ 1002e604     libucrt:lcidtoname_downlevel.obj
 0002:00008610       ??_C@_1M@JIJIBHDP@?$AAe?$AAs?$AA?9?$AAN?$AAI?$AA?$AA@ 1002e610     libucrt:lcidtoname_downlevel.obj
 0002:0000861c       ??_C@_1M@CGFMKEEK@?$AAe?$AAs?$AA?9?$AAP?$AAR?$AA?$AA@ 1002e61c     libucrt:lcidtoname_downlevel.obj
 0002:00008628       ??_C@_1O@ICJHKIIK@?$AAz?$AAh?$AA?9?$AAC?$AAH?$AAT?$AA?$AA@ 1002e628     libucrt:lcidtoname_downlevel.obj
 0002:00008638       ??_C@_15CLNEJCE@?$AAs?$AAr?$AA?$AA@ 1002e638     libucrt:lcidtoname_downlevel.obj
 0002:00008d60       ??_C@_1M@KAHEKEIG@?$AAa?$AAf?$AA?9?$AAz?$AAa?$AA?$AA@ 1002ed60     libucrt:lcidtoname_downlevel.obj
 0002:00008d6c       ??_C@_1M@GIECOABL@?$AAa?$AAr?$AA?9?$AAa?$AAe?$AA?$AA@ 1002ed6c     libucrt:lcidtoname_downlevel.obj
 0002:00008d78       ??_C@_1M@BMLMEKGI@?$AAa?$AAr?$AA?9?$AAb?$AAh?$AA?$AA@ 1002ed78     libucrt:lcidtoname_downlevel.obj
 0002:00008d84       ??_C@_1M@DAPFDGGB@?$AAa?$AAr?$AA?9?$AAd?$AAz?$AA?$AA@ 1002ed84     libucrt:lcidtoname_downlevel.obj
 0002:00008d90       ??_C@_1M@FJNKGKIG@?$AAa?$AAr?$AA?9?$AAe?$AAg?$AA?$AA@ 1002ed90     libucrt:lcidtoname_downlevel.obj
 0002:00008d9c       ??_C@_1M@FLGKKCLO@?$AAa?$AAr?$AA?9?$AAi?$AAq?$AA?$AA@ 1002ed9c     libucrt:lcidtoname_downlevel.obj
 0002:00008da8       ??_C@_1M@GNDIPALM@?$AAa?$AAr?$AA?9?$AAj?$AAo?$AA?$AA@ 1002eda8     libucrt:lcidtoname_downlevel.obj
 0002:00008db4       ??_C@_1M@DDMJFMGJ@?$AAa?$AAr?$AA?9?$AAk?$AAw?$AA?$AA@ 1002edb4     libucrt:lcidtoname_downlevel.obj
 0002:00008dc0       ??_C@_1M@EJALMLHM@?$AAa?$AAr?$AA?9?$AAl?$AAb?$AA?$AA@ 1002edc0     libucrt:lcidtoname_downlevel.obj
 0002:00008dcc       ??_C@_1M@MOBDBLOC@?$AAa?$AAr?$AA?9?$AAl?$AAy?$AA?$AA@ 1002edcc     libucrt:lcidtoname_downlevel.obj
 0002:00008dd8       ??_C@_1M@JAOCLHDH@?$AAa?$AAr?$AA?9?$AAm?$AAa?$AA?$AA@ 1002edd8     libucrt:lcidtoname_downlevel.obj
 0002:00008de4       ??_C@_1M@JHPMKJIE@?$AAa?$AAr?$AA?9?$AAo?$AAm?$AA?$AA@ 1002ede4     libucrt:lcidtoname_downlevel.obj
 0002:00008df0       ??_C@_1M@OEPGHFNH@?$AAa?$AAr?$AA?9?$AAq?$AAa?$AA?$AA@ 1002edf0     libucrt:lcidtoname_downlevel.obj
 0002:00008dfc       ??_C@_1M@KJDONENM@?$AAa?$AAr?$AA?9?$AAs?$AAa?$AA?$AA@ 1002edfc     libucrt:lcidtoname_downlevel.obj
 0002:00008e08       ??_C@_1M@DMJDKLKM@?$AAa?$AAr?$AA?9?$AAs?$AAy?$AA?$AA@ 1002ee08     libucrt:lcidtoname_downlevel.obj
 0002:00008e14       ??_C@_1M@OMFIPEDC@?$AAa?$AAr?$AA?9?$AAt?$AAn?$AA?$AA@ 1002ee14     libucrt:lcidtoname_downlevel.obj
 0002:00008e20       ??_C@_1M@IHMHGAON@?$AAa?$AAr?$AA?9?$AAy?$AAe?$AA?$AA@ 1002ee20     libucrt:lcidtoname_downlevel.obj
 0002:00008e2c       ??_C@_1BG@KDCPGJGB@?$AAa?$AAz?$AA?9?$AAa?$AAz?$AA?9?$AAc?$AAy?$AAr?$AAl?$AA?$AA@ 1002ee2c     libucrt:lcidtoname_downlevel.obj
 0002:00008e44       ??_C@_1BG@IBCKDDOE@?$AAa?$AAz?$AA?9?$AAa?$AAz?$AA?9?$AAl?$AAa?$AAt?$AAn?$AA?$AA@ 1002ee44     libucrt:lcidtoname_downlevel.obj
 0002:00008e5c       ??_C@_1M@EGPFDCPD@?$AAb?$AAe?$AA?9?$AAb?$AAy?$AA?$AA@ 1002ee5c     libucrt:lcidtoname_downlevel.obj
 0002:00008e68       ??_C@_1M@PCMGMCGC@?$AAb?$AAg?$AA?9?$AAb?$AAg?$AA?$AA@ 1002ee68     libucrt:lcidtoname_downlevel.obj
 0002:00008e74       ??_C@_1M@BJBMFGOB@?$AAb?$AAn?$AA?9?$AAi?$AAn?$AA?$AA@ 1002ee74     libucrt:lcidtoname_downlevel.obj
 0002:00008e80       ??_C@_1BG@EAKMMACD@?$AAb?$AAs?$AA?9?$AAb?$AAa?$AA?9?$AAl?$AAa?$AAt?$AAn?$AA?$AA@ 1002ee80     libucrt:lcidtoname_downlevel.obj
 0002:00008e98       ??_C@_1M@KGADAODK@?$AAc?$AAa?$AA?9?$AAe?$AAs?$AA?$AA@ 1002ee98     libucrt:lcidtoname_downlevel.obj
 0002:00008ea4       ??_C@_1M@COAJPDHI@?$AAc?$AAs?$AA?9?$AAc?$AAz?$AA?$AA@ 1002eea4     libucrt:lcidtoname_downlevel.obj
 0002:00008eb0       ??_C@_1M@DHBHFONH@?$AAc?$AAy?$AA?9?$AAg?$AAb?$AA?$AA@ 1002eeb0     libucrt:lcidtoname_downlevel.obj
 0002:00008ebc       ??_C@_1M@IMGKELGA@?$AAd?$AAa?$AA?9?$AAd?$AAk?$AA?$AA@ 1002eebc     libucrt:lcidtoname_downlevel.obj
 0002:00008ec8       ??_C@_1M@NNDGDNGA@?$AAd?$AAe?$AA?9?$AAa?$AAt?$AA?$AA@ 1002eec8     libucrt:lcidtoname_downlevel.obj
 0002:00008ed4       ??_C@_1M@IKDBHEEM@?$AAd?$AAe?$AA?9?$AAc?$AAh?$AA?$AA@ 1002eed4     libucrt:lcidtoname_downlevel.obj
 0002:00008ee0       ??_C@_1M@GFFOJMCJ@?$AAd?$AAe?$AA?9?$AAd?$AAe?$AA?$AA@ 1002eee0     libucrt:lcidtoname_downlevel.obj
 0002:00008eec       ??_C@_1M@MDNLKBPM@?$AAd?$AAe?$AA?9?$AAl?$AAi?$AA?$AA@ 1002eeec     libucrt:lcidtoname_downlevel.obj
 0002:00008ef8       ??_C@_1M@NJBEEJNL@?$AAd?$AAe?$AA?9?$AAl?$AAu?$AA?$AA@ 1002eef8     libucrt:lcidtoname_downlevel.obj
 0002:00008f04       ??_C@_1O@GNNELBAP@?$AAd?$AAi?$AAv?$AA?9?$AAm?$AAv?$AA?$AA@ 1002ef04     libucrt:lcidtoname_downlevel.obj
 0002:00008f14       ??_C@_1M@EJLEOGAE@?$AAe?$AAl?$AA?9?$AAg?$AAr?$AA?$AA@ 1002ef14     libucrt:lcidtoname_downlevel.obj
 0002:00008f20       ??_C@_1M@GMPONJN@?$AAe?$AAn?$AA?9?$AAa?$AAu?$AA?$AA@ 1002ef20     libucrt:lcidtoname_downlevel.obj
 0002:00008f2c       ??_C@_1M@NIDIIPGF@?$AAe?$AAn?$AA?9?$AAb?$AAz?$AA?$AA@ 1002ef2c     libucrt:lcidtoname_downlevel.obj
 0002:00008f38       ??_C@_1M@JEHMIMFO@?$AAe?$AAn?$AA?9?$AAc?$AAa?$AA?$AA@ 1002ef38     libucrt:lcidtoname_downlevel.obj
 0002:00008f44       ??_C@_1M@IGMJCDLA@?$AAe?$AAn?$AA?9?$AAc?$AAb?$AA?$AA@ 1002ef44     libucrt:lcidtoname_downlevel.obj
 0002:00008f50       ??_C@_1M@BNFIGBKG@?$AAe?$AAn?$AA?9?$AAg?$AAb?$AA?$AA@ 1002ef50     libucrt:lcidtoname_downlevel.obj
 0002:00008f5c       ??_C@_1M@LKIFDIGP@?$AAe?$AAn?$AA?9?$AAi?$AAe?$AA?$AA@ 1002ef5c     libucrt:lcidtoname_downlevel.obj
 0002:00008f68       ??_C@_1M@PJKFGCCO@?$AAe?$AAn?$AA?9?$AAj?$AAm?$AA?$AA@ 1002ef68     libucrt:lcidtoname_downlevel.obj
 0002:00008f74       ??_C@_1M@KPPKEPBO@?$AAe?$AAn?$AA?9?$AAn?$AAz?$AA?$AA@ 1002ef74     libucrt:lcidtoname_downlevel.obj
 0002:00008f80       ??_C@_1M@GMDGLDOB@?$AAe?$AAn?$AA?9?$AAp?$AAh?$AA?$AA@ 1002ef80     libucrt:lcidtoname_downlevel.obj
 0002:00008f8c       ??_C@_1M@ONGIBJNA@?$AAe?$AAn?$AA?9?$AAt?$AAt?$AA?$AA@ 1002ef8c     libucrt:lcidtoname_downlevel.obj
 0002:00008f98       ??_C@_1M@LLODPCMM@?$AAe?$AAn?$AA?9?$AAu?$AAs?$AA?$AA@ 1002ef98     libucrt:lcidtoname_downlevel.obj
 0002:00008fa4       ??_C@_1M@LAKFNPAN@?$AAe?$AAn?$AA?9?$AAz?$AAa?$AA?$AA@ 1002efa4     libucrt:lcidtoname_downlevel.obj
 0002:00008fb0       ??_C@_1M@MFNHNHEO@?$AAe?$AAn?$AA?9?$AAz?$AAw?$AA?$AA@ 1002efb0     libucrt:lcidtoname_downlevel.obj
 0002:00008fbc       ??_C@_1M@EJEINPHM@?$AAe?$AAs?$AA?9?$AAa?$AAr?$AA?$AA@ 1002efbc     libucrt:lcidtoname_downlevel.obj
 0002:00008fc8       ??_C@_1M@GNKPCCJA@?$AAe?$AAs?$AA?9?$AAb?$AAo?$AA?$AA@ 1002efc8     libucrt:lcidtoname_downlevel.obj
 0002:00008fd4       ??_C@_1M@LEEGFONL@?$AAe?$AAs?$AA?9?$AAc?$AAl?$AA?$AA@ 1002efd4     libucrt:lcidtoname_downlevel.obj
 0002:00008fe0       ??_C@_1M@KGPDPBDF@?$AAe?$AAs?$AA?9?$AAc?$AAo?$AA?$AA@ 1002efe0     libucrt:lcidtoname_downlevel.obj
 0002:00008fec       ??_C@_1M@EIAHOHH@?$AAe?$AAs?$AA?9?$AAc?$AAr?$AA?$AA@ 1002efec     libucrt:lcidtoname_downlevel.obj
 0002:00008ff8       ??_C@_1M@LLPGMBIN@?$AAe?$AAs?$AA?9?$AAd?$AAo?$AA?$AA@ 1002eff8     libucrt:lcidtoname_downlevel.obj
 0002:00009004       ??_C@_1M@DKHMKNJA@?$AAe?$AAs?$AA?9?$AAe?$AAc?$AA?$AA@ 1002f004     libucrt:lcidtoname_downlevel.obj
 0002:00009010       ??_C@_1M@GKGFPKAP@?$AAe?$AAs?$AA?9?$AAe?$AAs?$AA?$AA@ 1002f010     libucrt:lcidtoname_downlevel.obj
 0002:0000901c       ??_C@_1M@LKHKGDLN@?$AAe?$AAs?$AA?9?$AAg?$AAt?$AA?$AA@ 1002f01c     libucrt:lcidtoname_downlevel.obj
 0002:00009028       ??_C@_1M@HEIIGGJD@?$AAe?$AAs?$AA?9?$AAh?$AAn?$AA?$AA@ 1002f028     libucrt:lcidtoname_downlevel.obj
 0002:00009034       ??_C@_1M@FBDHPPGD@?$AAe?$AAs?$AA?9?$AAm?$AAx?$AA?$AA@ 1002f034     libucrt:lcidtoname_downlevel.obj
 0002:00009040       ??_C@_1M@DPAGLNDH@?$AAe?$AAs?$AA?9?$AAn?$AAi?$AA?$AA@ 1002f040     libucrt:lcidtoname_downlevel.obj
 0002:0000904c       ??_C@_1M@MDGOPGDD@?$AAe?$AAs?$AA?9?$AAp?$AAa?$AA?$AA@ 1002f04c     libucrt:lcidtoname_downlevel.obj
 0002:00009058       ??_C@_1M@EMAMGBGE@?$AAe?$AAs?$AA?9?$AAp?$AAe?$AA?$AA@ 1002f058     libucrt:lcidtoname_downlevel.obj
 0002:00009064       ??_C@_1M@IBMCAOEC@?$AAe?$AAs?$AA?9?$AAp?$AAr?$AA?$AA@ 1002f064     libucrt:lcidtoname_downlevel.obj
 0002:00009070       ??_C@_1M@FGMDIJED@?$AAe?$AAs?$AA?9?$AAp?$AAy?$AA?$AA@ 1002f070     libucrt:lcidtoname_downlevel.obj
 0002:0000907c       ??_C@_1M@IIDEOLLL@?$AAe?$AAs?$AA?9?$AAs?$AAv?$AA?$AA@ 1002f07c     libucrt:lcidtoname_downlevel.obj
 0002:00009088       ??_C@_1M@GAOBIPA@?$AAe?$AAs?$AA?9?$AAu?$AAy?$AA?$AA@ 1002f088     libucrt:lcidtoname_downlevel.obj
 0002:00009094       ??_C@_1M@JKFFICHJ@?$AAe?$AAs?$AA?9?$AAv?$AAe?$AA?$AA@ 1002f094     libucrt:lcidtoname_downlevel.obj
 0002:000090a0       ??_C@_1M@PNMLOJDF@?$AAe?$AAt?$AA?9?$AAe?$AAe?$AA?$AA@ 1002f0a0     libucrt:lcidtoname_downlevel.obj
 0002:000090ac       ??_C@_1M@GHHLIKEI@?$AAe?$AAu?$AA?9?$AAe?$AAs?$AA?$AA@ 1002f0ac     libucrt:lcidtoname_downlevel.obj
 0002:000090b8       ??_C@_1M@PBNONODE@?$AAf?$AAa?$AA?9?$AAi?$AAr?$AA?$AA@ 1002f0b8     libucrt:lcidtoname_downlevel.obj
 0002:000090c4       ??_C@_1M@JEEHPMIL@?$AAf?$AAi?$AA?9?$AAf?$AAi?$AA?$AA@ 1002f0c4     libucrt:lcidtoname_downlevel.obj
 0002:000090d0       ??_C@_1M@LMDCNDBA@?$AAf?$AAo?$AA?9?$AAf?$AAo?$AA?$AA@ 1002f0d0     libucrt:lcidtoname_downlevel.obj
 0002:000090dc       ??_C@_1M@JKEOHLDK@?$AAf?$AAr?$AA?9?$AAb?$AAe?$AA?$AA@ 1002f0dc     libucrt:lcidtoname_downlevel.obj
 0002:000090e8       ??_C@_1M@NOHADPMI@?$AAf?$AAr?$AA?9?$AAc?$AAa?$AA?$AA@ 1002f0e8     libucrt:lcidtoname_downlevel.obj
 0002:000090f4       ??_C@_1M@KDHIHAEC@?$AAf?$AAr?$AA?9?$AAc?$AAh?$AA?$AA@ 1002f0f4     libucrt:lcidtoname_downlevel.obj
 0002:00009100       ??_C@_1M@MMBBFGAK@?$AAf?$AAr?$AA?9?$AAf?$AAr?$AA?$AA@ 1002f100     libucrt:lcidtoname_downlevel.obj
 0002:0000910c       ??_C@_1M@PAFNENNF@?$AAf?$AAr?$AA?9?$AAl?$AAu?$AA?$AA@ 1002f10c     libucrt:lcidtoname_downlevel.obj
 0002:00009118       ??_C@_1M@EOHDJGDD@?$AAf?$AAr?$AA?9?$AAm?$AAc?$AA?$AA@ 1002f118     libucrt:lcidtoname_downlevel.obj
 0002:00009124       ??_C@_1M@FAPLLOPF@?$AAg?$AAl?$AA?9?$AAe?$AAs?$AA?$AA@ 1002f124     libucrt:lcidtoname_downlevel.obj
 0002:00009130       ??_C@_1M@FOPBFLOO@?$AAg?$AAu?$AA?9?$AAi?$AAn?$AA?$AA@ 1002f130     libucrt:lcidtoname_downlevel.obj
 0002:0000913c       ??_C@_1M@KBMCINPM@?$AAh?$AAe?$AA?9?$AAi?$AAl?$AA?$AA@ 1002f13c     libucrt:lcidtoname_downlevel.obj
 0002:00009148       ??_C@_1M@BBPHKFPJ@?$AAh?$AAi?$AA?9?$AAi?$AAn?$AA?$AA@ 1002f148     libucrt:lcidtoname_downlevel.obj
 0002:00009154       ??_C@_1M@PMBNDPHD@?$AAh?$AAr?$AA?9?$AAb?$AAa?$AA?$AA@ 1002f154     libucrt:lcidtoname_downlevel.obj
 0002:00009160       ??_C@_1M@BPCKOEGE@?$AAh?$AAr?$AA?9?$AAh?$AAr?$AA?$AA@ 1002f160     libucrt:lcidtoname_downlevel.obj
 0002:0000916c       ??_C@_1M@GACBMHKE@?$AAh?$AAu?$AA?9?$AAh?$AAu?$AA?$AA@ 1002f16c     libucrt:lcidtoname_downlevel.obj
 0002:00009178       ??_C@_1M@MILPAJJC@?$AAh?$AAy?$AA?9?$AAa?$AAm?$AA?$AA@ 1002f178     libucrt:lcidtoname_downlevel.obj
 0002:00009184       ??_C@_1M@BABBICEC@?$AAi?$AAd?$AA?9?$AAi?$AAd?$AA?$AA@ 1002f184     libucrt:lcidtoname_downlevel.obj
 0002:00009190       ??_C@_1M@BIKNHHPF@?$AAi?$AAs?$AA?9?$AAi?$AAs?$AA?$AA@ 1002f190     libucrt:lcidtoname_downlevel.obj
 0002:0000919c       ??_C@_1M@NMPCJPHE@?$AAi?$AAt?$AA?9?$AAc?$AAh?$AA?$AA@ 1002f19c     libucrt:lcidtoname_downlevel.obj
 0002:000091a8       ??_C@_1M@GHKGFEDF@?$AAi?$AAt?$AA?9?$AAi?$AAt?$AA?$AA@ 1002f1a8     libucrt:lcidtoname_downlevel.obj
 0002:000091b4       ??_C@_1M@NIEJCJJA@?$AAj?$AAa?$AA?9?$AAj?$AAp?$AA?$AA@ 1002f1b4     libucrt:lcidtoname_downlevel.obj
 0002:000091c0       ??_C@_1M@JILFNBIM@?$AAk?$AAa?$AA?9?$AAg?$AAe?$AA?$AA@ 1002f1c0     libucrt:lcidtoname_downlevel.obj
 0002:000091cc       ??_C@_1M@PACPMGPH@?$AAk?$AAk?$AA?9?$AAk?$AAz?$AA?$AA@ 1002f1cc     libucrt:lcidtoname_downlevel.obj
 0002:000091d8       ??_C@_1M@IELFGMHA@?$AAk?$AAn?$AA?9?$AAi?$AAn?$AA?$AA@ 1002f1d8     libucrt:lcidtoname_downlevel.obj
 0002:000091e4       ??_C@_1O@IBBJHCH@?$AAk?$AAo?$AAk?$AA?9?$AAi?$AAn?$AA?$AA@ 1002f1e4     libucrt:lcidtoname_downlevel.obj
 0002:000091f4       ??_C@_1M@DMHAEOGC@?$AAk?$AAo?$AA?9?$AAk?$AAr?$AA?$AA@ 1002f1f4     libucrt:lcidtoname_downlevel.obj
 0002:00009200       ??_C@_1M@HBAHBIGA@?$AAk?$AAy?$AA?9?$AAk?$AAg?$AA?$AA@ 1002f200     libucrt:lcidtoname_downlevel.obj
 0002:0000920c       ??_C@_1M@KPMILCJG@?$AAl?$AAt?$AA?9?$AAl?$AAt?$AA?$AA@ 1002f20c     libucrt:lcidtoname_downlevel.obj
 0002:00009218       ??_C@_1M@BDEKKCA@?$AAl?$AAv?$AA?9?$AAl?$AAv?$AA?$AA@ 1002f218     libucrt:lcidtoname_downlevel.obj
 0002:00009224       ??_C@_1M@ELCKCCJJ@?$AAm?$AAi?$AA?9?$AAn?$AAz?$AA?$AA@ 1002f224     libucrt:lcidtoname_downlevel.obj
 0002:00009230       ??_C@_1M@CBOOLAPA@?$AAm?$AAk?$AA?9?$AAm?$AAk?$AA?$AA@ 1002f230     libucrt:lcidtoname_downlevel.obj
 0002:0000923c       ??_C@_1M@GPHNBJKN@?$AAm?$AAl?$AA?9?$AAi?$AAn?$AA?$AA@ 1002f23c     libucrt:lcidtoname_downlevel.obj
 0002:00009248       ??_C@_1M@PABJILIG@?$AAm?$AAn?$AA?9?$AAm?$AAn?$AA?$AA@ 1002f248     libucrt:lcidtoname_downlevel.obj
 0002:00009254       ??_C@_1M@FGBKKIPG@?$AAm?$AAr?$AA?9?$AAi?$AAn?$AA?$AA@ 1002f254     libucrt:lcidtoname_downlevel.obj
 0002:00009260       ??_C@_1M@NDBPDDAL@?$AAm?$AAs?$AA?9?$AAb?$AAn?$AA?$AA@ 1002f260     libucrt:lcidtoname_downlevel.obj
 0002:0000926c       ??_C@_1M@OPIHOOPI@?$AAm?$AAs?$AA?9?$AAm?$AAy?$AA?$AA@ 1002f26c     libucrt:lcidtoname_downlevel.obj
 0002:00009278       ??_C@_1M@PPDBCNFM@?$AAm?$AAt?$AA?9?$AAm?$AAt?$AA?$AA@ 1002f278     libucrt:lcidtoname_downlevel.obj
 0002:00009284       ??_C@_1M@KDJDKMDD@?$AAn?$AAb?$AA?9?$AAn?$AAo?$AA?$AA@ 1002f284     libucrt:lcidtoname_downlevel.obj
 0002:00009290       ??_C@_1M@KFCFLMJP@?$AAn?$AAl?$AA?9?$AAb?$AAe?$AA?$AA@ 1002f290     libucrt:lcidtoname_downlevel.obj
 0002:0000929c       ??_C@_1M@KPOPDDGO@?$AAn?$AAl?$AA?9?$AAn?$AAl?$AA?$AA@ 1002f29c     libucrt:lcidtoname_downlevel.obj
 0002:000092a8       ??_C@_1M@LJKPEMLN@?$AAn?$AAn?$AA?9?$AAn?$AAo?$AA?$AA@ 1002f2a8     libucrt:lcidtoname_downlevel.obj
 0002:000092b4       ??_C@_1M@BDGHHBFL@?$AAn?$AAs?$AA?9?$AAz?$AAa?$AA?$AA@ 1002f2b4     libucrt:lcidtoname_downlevel.obj
 0002:000092c0       ??_C@_1M@IDEHOAP@?$AAp?$AAa?$AA?9?$AAi?$AAn?$AA?$AA@ 1002f2c0     libucrt:lcidtoname_downlevel.obj
 0002:000092cc       ??_C@_1M@HDBKGOGH@?$AAp?$AAl?$AA?9?$AAp?$AAl?$AA?$AA@ 1002f2cc     libucrt:lcidtoname_downlevel.obj
 0002:000092d8       ??_C@_1M@LJLLCMEH@?$AAp?$AAt?$AA?9?$AAb?$AAr?$AA?$AA@ 1002f2d8     libucrt:lcidtoname_downlevel.obj
 0002:000092e4       ??_C@_1M@NCMONAAL@?$AAp?$AAt?$AA?9?$AAp?$AAt?$AA?$AA@ 1002f2e4     libucrt:lcidtoname_downlevel.obj
 0002:000092f0       ??_C@_1O@EAKMAJDN@?$AAq?$AAu?$AAz?$AA?9?$AAb?$AAo?$AA?$AA@ 1002f2f0     libucrt:lcidtoname_downlevel.obj
 0002:00009300       ??_C@_1O@BHHPIGDN@?$AAq?$AAu?$AAz?$AA?9?$AAe?$AAc?$AA?$AA@ 1002f300     libucrt:lcidtoname_downlevel.obj
 0002:00009310       ??_C@_1O@GBAPEKMJ@?$AAq?$AAu?$AAz?$AA?9?$AAp?$AAe?$AA?$AA@ 1002f310     libucrt:lcidtoname_downlevel.obj
 0002:00009320       ??_C@_1M@CLGLEFBO@?$AAr?$AAo?$AA?9?$AAr?$AAo?$AA?$AA@ 1002f320     libucrt:lcidtoname_downlevel.obj
 0002:0000932c       ??_C@_1M@CEEDODME@?$AAr?$AAu?$AA?9?$AAr?$AAu?$AA?$AA@ 1002f32c     libucrt:lcidtoname_downlevel.obj
 0002:00009338       ??_C@_1M@HPKKKMPP@?$AAs?$AAa?$AA?9?$AAi?$AAn?$AA?$AA@ 1002f338     libucrt:lcidtoname_downlevel.obj
 0002:00009344       ??_C@_1M@BKMAIGOJ@?$AAs?$AAe?$AA?9?$AAf?$AAi?$AA?$AA@ 1002f344     libucrt:lcidtoname_downlevel.obj
 0002:00009350       ??_C@_1M@NDPIFLFI@?$AAs?$AAe?$AA?9?$AAn?$AAo?$AA?$AA@ 1002f350     libucrt:lcidtoname_downlevel.obj
 0002:0000935c       ??_C@_1M@DANKKHJ@?$AAs?$AAe?$AA?9?$AAs?$AAe?$AA?$AA@ 1002f35c     libucrt:lcidtoname_downlevel.obj
 0002:00009368       ??_C@_1M@PNBLONPJ@?$AAs?$AAk?$AA?9?$AAs?$AAk?$AA?$AA@ 1002f368     libucrt:lcidtoname_downlevel.obj
 0002:00009374       ??_C@_1M@LFMODOAL@?$AAs?$AAl?$AA?9?$AAs?$AAi?$AA?$AA@ 1002f374     libucrt:lcidtoname_downlevel.obj
 0002:00009380       ??_C@_1O@DFKOMPG@?$AAs?$AAm?$AAa?$AA?9?$AAn?$AAo?$AA?$AA@ 1002f380     libucrt:lcidtoname_downlevel.obj
 0002:00009390       ??_C@_1O@NDKPBNNH@?$AAs?$AAm?$AAa?$AA?9?$AAs?$AAe?$AA?$AA@ 1002f390     libucrt:lcidtoname_downlevel.obj
 0002:000093a0       ??_C@_1O@PLLKBHAB@?$AAs?$AAm?$AAj?$AA?9?$AAn?$AAo?$AA?$AA@ 1002f3a0     libucrt:lcidtoname_downlevel.obj
 0002:000093b0       ??_C@_1O@CLEPOGCA@?$AAs?$AAm?$AAj?$AA?9?$AAs?$AAe?$AA?$AA@ 1002f3b0     libucrt:lcidtoname_downlevel.obj
 0002:000093c0       ??_C@_1O@DLGJGKMK@?$AAs?$AAm?$AAn?$AA?9?$AAf?$AAi?$AA?$AA@ 1002f3c0     libucrt:lcidtoname_downlevel.obj
 0002:000093d0       ??_C@_1O@OJDJGAJC@?$AAs?$AAm?$AAs?$AA?9?$AAf?$AAi?$AA?$AA@ 1002f3d0     libucrt:lcidtoname_downlevel.obj
 0002:000093e0       ??_C@_1M@BOFOGHPB@?$AAs?$AAq?$AA?9?$AAa?$AAl?$AA?$AA@ 1002f3e0     libucrt:lcidtoname_downlevel.obj
 0002:000093ec       ??_C@_1BG@LJBBIPGB@?$AAs?$AAr?$AA?9?$AAb?$AAa?$AA?9?$AAc?$AAy?$AAr?$AAl?$AA?$AA@ 1002f3ec     libucrt:lcidtoname_downlevel.obj
 0002:00009404       ??_C@_1BG@JLBENFOE@?$AAs?$AAr?$AA?9?$AAb?$AAa?$AA?9?$AAl?$AAa?$AAt?$AAn?$AA?$AA@ 1002f404     libucrt:lcidtoname_downlevel.obj
 0002:0000941c       ??_C@_1BG@KODPNHE@?$AAs?$AAr?$AA?9?$AAs?$AAp?$AA?9?$AAc?$AAy?$AAr?$AAl?$AA?$AA@ 1002f41c     libucrt:lcidtoname_downlevel.obj
 0002:00009434       ??_C@_1BG@CIOGKHPB@?$AAs?$AAr?$AA?9?$AAs?$AAp?$AA?9?$AAl?$AAa?$AAt?$AAn?$AA?$AA@ 1002f434     libucrt:lcidtoname_downlevel.obj
 0002:0000944c       ??_C@_1M@NGFJLMAC@?$AAs?$AAv?$AA?9?$AAf?$AAi?$AA?$AA@ 1002f44c     libucrt:lcidtoname_downlevel.obj
 0002:00009458       ??_C@_1M@MPJEJAJC@?$AAs?$AAv?$AA?9?$AAs?$AAe?$AA?$AA@ 1002f458     libucrt:lcidtoname_downlevel.obj
 0002:00009464       ??_C@_1M@MPNDHLFK@?$AAs?$AAw?$AA?9?$AAk?$AAe?$AA?$AA@ 1002f464     libucrt:lcidtoname_downlevel.obj
 0002:00009470       ??_C@_1O@KOHBJJI@?$AAs?$AAy?$AAr?$AA?9?$AAs?$AAy?$AA?$AA@ 1002f470     libucrt:lcidtoname_downlevel.obj
 0002:00009480       ??_C@_1M@LDCEFHA@?$AAt?$AAa?$AA?9?$AAi?$AAn?$AA?$AA@ 1002f480     libucrt:lcidtoname_downlevel.obj
 0002:0000948c       ??_C@_1M@CNJOFAK@?$AAt?$AAe?$AA?9?$AAi?$AAn?$AA?$AA@ 1002f48c     libucrt:lcidtoname_downlevel.obj
 0002:00009498       ??_C@_1M@GNAECACD@?$AAt?$AAh?$AA?9?$AAt?$AAh?$AA?$AA@ 1002f498     libucrt:lcidtoname_downlevel.obj
 0002:000094a4       ??_C@_1M@CHBIHOJO@?$AAt?$AAn?$AA?9?$AAz?$AAa?$AA?$AA@ 1002f4a4     libucrt:lcidtoname_downlevel.obj
 0002:000094b0       ??_C@_1M@GCCMIGPJ@?$AAt?$AAr?$AA?9?$AAt?$AAr?$AA?$AA@ 1002f4b0     libucrt:lcidtoname_downlevel.obj
 0002:000094bc       ??_C@_1M@CELMCNBK@?$AAt?$AAt?$AA?9?$AAr?$AAu?$AA?$AA@ 1002f4bc     libucrt:lcidtoname_downlevel.obj
 0002:000094c8       ??_C@_1M@KLMCELGA@?$AAu?$AAk?$AA?9?$AAu?$AAa?$AA?$AA@ 1002f4c8     libucrt:lcidtoname_downlevel.obj
 0002:000094d4       ??_C@_1M@EPAJJAJF@?$AAu?$AAr?$AA?9?$AAp?$AAk?$AA?$AA@ 1002f4d4     libucrt:lcidtoname_downlevel.obj
 0002:000094e0       ??_C@_1BG@GEGPMCDJ@?$AAu?$AAz?$AA?9?$AAu?$AAz?$AA?9?$AAc?$AAy?$AAr?$AAl?$AA?$AA@ 1002f4e0     libucrt:lcidtoname_downlevel.obj
 0002:000094f8       ??_C@_1BG@EGGKJILM@?$AAu?$AAz?$AA?9?$AAu?$AAz?$AA?9?$AAl?$AAa?$AAt?$AAn?$AA?$AA@ 1002f4f8     libucrt:lcidtoname_downlevel.obj
 0002:00009510       ??_C@_1M@GFOCLFF@?$AAv?$AAi?$AA?9?$AAv?$AAn?$AA?$AA@ 1002f510     libucrt:lcidtoname_downlevel.obj
 0002:0000951c       ??_C@_1M@CPAMEDFI@?$AAx?$AAh?$AA?9?$AAz?$AAa?$AA?$AA@ 1002f51c     libucrt:lcidtoname_downlevel.obj
 0002:00009528       ??_C@_1O@EBKIFIGN@?$AAz?$AAh?$AA?9?$AAc?$AAh?$AAs?$AA?$AA@ 1002f528     libucrt:lcidtoname_downlevel.obj
 0002:00009538       ??_C@_1O@NMHPGANE@?$AAz?$AAh?$AA?9?$AAc?$AAh?$AAt?$AA?$AA@ 1002f538     libucrt:lcidtoname_downlevel.obj
 0002:00009548       ??_C@_1M@LPINJOMC@?$AAz?$AAh?$AA?9?$AAc?$AAn?$AA?$AA@ 1002f548     libucrt:lcidtoname_downlevel.obj
 0002:00009554       ??_C@_1M@OCJEJODD@?$AAz?$AAh?$AA?9?$AAh?$AAk?$AA?$AA@ 1002f554     libucrt:lcidtoname_downlevel.obj
 0002:00009560       ??_C@_1M@DNDLJINH@?$AAz?$AAh?$AA?9?$AAm?$AAo?$AA?$AA@ 1002f560     libucrt:lcidtoname_downlevel.obj
 0002:0000956c       ??_C@_1M@MBFDNDND@?$AAz?$AAh?$AA?9?$AAs?$AAg?$AA?$AA@ 1002f56c     libucrt:lcidtoname_downlevel.obj
 0002:00009578       ??_C@_1M@IMEPLEPE@?$AAz?$AAh?$AA?9?$AAt?$AAw?$AA?$AA@ 1002f578     libucrt:lcidtoname_downlevel.obj
 0002:00009584       ??_C@_1M@BBGHNHJP@?$AAz?$AAu?$AA?9?$AAz?$AAa?$AA?$AA@ 1002f584     libucrt:lcidtoname_downlevel.obj
 0002:00009590       ___acrt_pow_rcp_t1         1002f590     libucrt:pow_tables.obj
 0002:000099a0       ___acrt_pow_log2_t1        1002f9a0     libucrt:pow_tables.obj
 0002:0000a1b0       ___acrt_pow_rcp_t2         100301b0     libucrt:pow_tables.obj
 0002:0000a5c0       ___acrt_pow_log2_t2        100305c0     libucrt:pow_tables.obj
 0002:0000add0       ___acrt_pow_rcp_t3         10030dd0     libucrt:pow_tables.obj
 0002:0000b5e0       ___acrt_pow_log2_t3        100315e0     libucrt:pow_tables.obj
 0002:0000c5f0       ___acrt_pow_clv            100325f0     libucrt:pow_tables.obj
 0002:0000c610       ___acrt_pow_exp2_tbl       10032610     libucrt:pow_tables.obj
 0002:0000cf70       ??_C@_1BA@BALFACEM@?$AAC?$AAO?$AAN?$AAO?$AAU?$AAT?$AA$?$AA?$AA@ 10032f70     libucrt:initcon.obj
 0002:0000cf80       ___acrt_log10_table_t      10032f80     libucrt:log10_tables.obj
 0002:0000d390       ___acrt_log10_table_cb     10033390     libucrt:log10_tables.obj
 0002:0000d7a0       ??_C@_0BC@BDKFLDHL@unknown?5exception@ 100337a0     HID.obj
 0002:0000d7b4       ??_C@_0BA@ELKIONDK@bad?5locale?5name@ 100337b4     HID.obj
 0002:0000d7c4       ??_C@_05LAPONLG@false@     100337c4     HID.obj
 0002:0000d7cc       ??_C@_04LOAJBDKD@true@     100337cc     HID.obj
 0002:0000d7d1       ??_C@_00CNPNBAHC@@         100337d1     HID.obj
 0002:0000d7d4       ??_C@_02LMMGGCAJ@?3?5@     100337d4     HID.obj
 0002:0000d7d8       ??_C@_08LLGCOLLL@iostream@ 100337d8     HID.obj
 0002:0000d7e4       ??_C@_0BG@PADBLCHM@iostream?5stream?5error@ 100337e4     HID.obj
 0002:0000d7fc       ??_C@_0BF@PHHKMMFD@ios_base?3?3badbit?5set@ 100337fc     HID.obj
 0002:0000d814       ??_C@_0BG@FMKFHCIL@ios_base?3?3failbit?5set@ 10033814     HID.obj
 0002:0000d82c       ??_C@_0BF@OOHOMBOF@ios_base?3?3eofbit?5set@ 1003382c     HID.obj
 0002:0000d844       ??_C@_1DG@OKCGPKIB@?$AAp?$AAe?$AAr?$AAs?$AAi?$AAs?$AAt?$AAe?$AAn?$AAt?$AA?$CI?$AA?$CJ?$AA?4?$AAI?$AAs@ 10033844     HID.obj
 0002:0000d87c       ??_C@_1CO@EGNPJLKI@?$AAp?$AAe?$AAr?$AAs?$AAi?$AAs?$AAt?$AAe?$AAn?$AAt?$AA?$CI?$AA?$CJ?$AA?4?$AAI?$AAs@ 1003387c     HID.obj
 0002:0000d8ac       ??_C@_1DA@FBGAEOIO@?$AA?$CB?$AAp?$AAe?$AAr?$AAs?$AAi?$AAs?$AAt?$AAe?$AAn?$AAt?$AA?$CI?$AA?$CJ?$AA?4?$AAI@ 100338ac     HID.obj
 0002:0000d8dc       ??_C@_1CO@JCKLEFMA@?$AA?$CB?$AAp?$AAe?$AAr?$AAs?$AAi?$AAs?$AAt?$AAe?$AAn?$AAt?$AA?$CI?$AA?$CJ?$AA?4?$AAI@ 100338dc     HID.obj
 0002:0000d90c       ??_C@_1BE@GMLLOIPJ@?$AAr?$AAe?$AAf?$AAs?$AA_?$AA?5?$AA?$DO?$AA?5?$AA0@ 1003390c     HID.obj
 0002:0000d920       ??_C@_1CC@GBFLAAPF@?$AAw?$AAr?$AAa?$AAp?$AA?9?$AA?$DO?$AAr?$AAe?$AAf?$AAs?$AA_?$AA?5?$AA?$DN?$AA?$DN?$AA?5@ 10033920     HID.obj
 0002:0000d944       ??_C@_0BA@JFNIOLAK@string?5too?5long@ 10033944     HID.obj
 0002:0000d958       ??_C@_1IG@CIKNCCJO@?$AAc?$AA?3?$AA?2?$AAu?$AAs?$AAe?$AAr?$AAs?$AA?2?$AAd?$AAd?$AA?2?$AAd?$AAe?$AAs@ 10033958     HID.obj
 0002:0000d9e0       ??_C@_1FM@LOELJOFK@?$AAs?$AAi?$AAz?$AAe?$AA?5?$AA?$DM?$AA?$DN?$AA?5?$AAi?$AAm?$AAp?$AA?3?$AA?3?$AAk?$AAM@ 100339e0     HID.obj
 0002:0000da3c       ??_C@_1BO@OPFMAOCA@?$AAl?$AAe?$AAn?$AA?5?$AA?$DM?$AA?$DN?$AA?5?$AAI?$AAN?$AAT?$AA_?$AAM?$AAA?$AAX@ 10033a3c     HID.obj
 0002:0000da5c       ??_C@_1BE@CKDJNAPC@?$AAs?$AAt?$AAr?$AA_?$AA?5?$AA?$CB?$AA?$DN?$AA?5?$AA0@ 10033a5c     HID.obj
 0002:0000da70       ??_C@_1JO@BPOCILKE@?$AAc?$AA?3?$AA?2?$AAu?$AAs?$AAe?$AAr?$AAs?$AA?2?$AAd?$AAd?$AA?2?$AAd?$AAe?$AAs@ 10033a70     HID.obj
 0002:0000db10       ??_C@_1EC@MGGLMBLC@?$AAo?$AAb?$AAj?$AAe?$AAc?$AAt?$AA?9?$AA?$DO?$AAI?$AAn?$AAt?$AAe?$AAr?$AAn?$AAa@ 10033b10     HID.obj
 0002:0000db54       ??_C@_1DI@ELDBKNAK@?$AAw?$AAr?$AAa?$AAp?$AA?9?$AA?$DO?$AAh?$AAa?$AAn?$AAd?$AAl?$AAe?$AA_?$AA?4?$AAI@ 10033b54     HID.obj
 0002:0000db8c       ??_C@_0BD@GEENGBHO@?5and?5product?5id?50x@ 10033b8c     HID.obj
 0002:0000dba0       ??_C@_0CF@MDOAKBDI@cannot?5open?5device?5with?5vendor?5@ 10033ba0     HID.obj
 0002:0000dbc8       ??_C@_0BO@GNAOKDHI@cannot?5open?5device?5with?5path?5@ 10033bc8     HID.obj
 0002:0000dbe8       ??_C@_0BL@ONEGCJGH@Cannot?5write?5to?5HID?5device@ 10033be8     HID.obj
 0002:0000dc04       ??_C@_0BP@HKAMNEOC@could?5not?5read?5from?5HID?5device@ 10033c04     HID.obj
 0002:0000dc24       ??_C@_0BH@IBBGLNCB@node?9hid?5recvAsyncDone@ 10033c24     HID.obj
 0002:0000dc3c       ??_C@_0CM@EKCDBJEM@need?5one?5callback?5function?5argu@ 10033c3c     HID.obj
 0002:0000dc68       ??_C@_0CE@LCGEEMCO@readSync?5need?5zero?5length?5param@ 10033c68     HID.obj
 0002:0000dc8c       ??_C@_0CA@JIANFBIP@could?5not?5read?5data?5from?5device@ 10033c8c     HID.obj
 0002:0000dcac       ??_C@_0CF@OFJMPDI@readTimeout?5needs?5time?5out?5para@ 10033cac     HID.obj
 0002:0000dcd4       ??_C@_0DJ@KKCLHFFJ@need?5report?5ID?5and?5length?5param@ 10033cd4     HID.obj
 0002:0000dd10       ??_C@_0DE@BLLHHKIJ@Length?5parameter?5cannot?5be?5zero@ 10033d10     HID.obj
 0002:0000dd44       ??_C@_0CJ@GKBNPDHN@could?5not?5get?5feature?5report?5fr@ 10033d44     HID.obj
 0002:0000dd70       ??_C@_0ED@LCDMCMGD@need?5report?5?$CIincluding?5id?5in?5fi@ 10033d70     HID.obj
 0002:0000ddb8       ??_C@_0ED@BHFICKBG@unexpected?5array?5element?5in?5arr@ 10033db8     HID.obj
 0002:0000ddfc       ??_C@_0CI@BMIJOJEC@could?5not?5send?5feature?5report?5t@ 10033dfc     HID.obj
 0002:0000de24       ??_C@_0CP@CELIFKAM@HID?5function?5can?5only?5be?5used?5a@ 10033e24     HID.obj
 0002:0000de54       ??_C@_0CP@HJPOBFMD@HID?5constructor?5requires?5at?5lea@ 10033e54     HID.obj
 0002:0000de84       ??_C@_0DN@KKDJHGFG@Expecting?5a?51?5to?5enable?0?50?5to?5d@ 10033e84     HID.obj
 0002:0000dec4       ??_C@_0CA@CAGFGJEJ@HID?5write?5requires?5one?5argument@ 10033ec4     HID.obj
 0002:0000dee4       ??_C@_0N@KCKFIEGL@manufacturer@ 10033ee4     HID.obj
 0002:0000def4       ??_C@_07IFEJIFCD@product@  10033ef4     HID.obj
 0002:0000defc       ??_C@_0N@OMOHFKCJ@serialNumber@ 10033efc     HID.obj
 0002:0000df10       ??_C@_0GN@DGJDDKAJ@unexpected?5number?5of?5arguments?5@ 10033f10     HID.obj
 0002:0000df80       ??_C@_08OOCGBFEC@vendorId@ 10033f80     HID.obj
 0002:0000df8c       ??_C@_09FNKBJNGL@productId@ 10033f8c     HID.obj
 0002:0000df98       ??_C@_04LNEJFJGI@path@     10033f98     HID.obj
 0002:0000dfa0       ??_C@_07EOGFDLKI@release@  10033fa0     HID.obj
 0002:0000dfa8       ??_C@_09NFKLEKPH@interface@ 10033fa8     HID.obj
 0002:0000dfb4       ??_C@_09CBMJHHAI@usagePage@ 10033fb4     HID.obj
 0002:0000dfc0       ??_C@_05HNCIIKBA@usage@    10033fc0     HID.obj
 0002:0000dfc8       ??_C@_0CL@IMCMDJIP@cannot?5initialize?5hidapi?5?$CIhid_i@ 10033fc8     HID.obj
 0002:0000dff4       ??_C@_03GLEFGMHP@HID@      10033ff4     HID.obj
 0002:0000dff8       ??_C@_05LBOHBHFK@close@    10033ff8     HID.obj
 0002:0000e000       ??_C@_04POLDLDMI@read@     10034000     HID.obj
 0002:0000e008       ??_C@_05NGFEDHGN@write@    10034008     HID.obj
 0002:0000e010       ??_C@_0BB@MBAIHEDE@getFeatureReport@ 10034010     HID.obj
 0002:0000e024       ??_C@_0BC@IGJHCHNL@sendFeatureReport@ 10034024     HID.obj
 0002:0000e038       ??_C@_0P@NMOJLDFK@setNonBlocking@ 10034038     HID.obj
 0002:0000e048       ??_C@_08IEBBCAID@readSync@ 10034048     HID.obj
 0002:0000e054       ??_C@_0M@CKEECMI@readTimeout@ 10034054     HID.obj
 0002:0000e060       ??_C@_0O@CMMEGGOC@getDeviceInfo@ 10034060     HID.obj
 0002:0000e070       ??_C@_07DNDGGNGG@devices@  10034070     HID.obj
 0002:0000e078       ??_C@_0EN@IOMMIMMJ@c?3?2users?2dd?2desktop?2besst?9build@ 10034078     HID.obj
 0002:0000e0c8       ??_C@_02BBAHNLBA@?$CFp@    100340c8     HID.obj
 0002:0000e0cc       ??_C@_02CLHGNPPK@Lu@       100340cc     HID.obj
 0002:0000e0d0       ??_C@_02HIKPPMOK@Ld@       100340d0     HID.obj
 0002:0000e0d4       ??_C@_02BDDLJJBK@lu@       100340d4     HID.obj
 0002:0000e0d8       ??_C@_02EAOCLKAK@ld@       100340d8     HID.obj
 0002:0000e0dc       ??_C@_02MDKMJEGG@eE@       100340dc     HID.obj
 0002:0000e0e0       ??_C@_02OOPEBDOJ@pP@       100340e0     HID.obj
 0002:0000e0e4       ??_C@_0BI@CFPLBAOH@invalid?5string?5position@ 100340e4     HID.obj
 0002:0000e0fc       ??_C@_1CE@LNAGEONJ@?$AA?$CB?$AAo?$AAb?$AAj?$AAe?$AAc?$AAt?$AA?4?$AAI?$AAs?$AAE?$AAm?$AAp?$AAt?$AAy@ 100340fc     HID.obj
 0002:0000e120       ??_C@_0BD@OLBABOEK@vector?$DMT?$DO?5too?5long@ 10034120     HID.obj
 0002:0000e134       ??_7?$basic_streambuf@DU?$char_traits@D@std@@@std@@6B@ 10034134     HID.obj
 0002:0000e170       ??_7?$basic_ostringstream@DU?$char_traits@D@std@@V?$allocator@D@2@@std@@6B@ 10034170     HID.obj
 0002:0000e174       ??_7JSException@@6B@       10034174     HID.obj
 0002:0000e180       ??_7_Iostream_error_category@std@@6B@ 10034180     HID.obj
 0002:0000e198       ??_7ios_base@std@@6B@      10034198     HID.obj
 0002:0000e19c       ??_7HID@@6B@               1003419c     HID.obj
 0002:0000e1a8       ??_7?$basic_ios@DU?$char_traits@D@std@@@std@@6B@ 100341a8     HID.obj
 0002:0000e1ac       ??_7exception@stdext@@6B@  100341ac     HID.obj
 0002:0000e1b8       ??_7?$basic_stringbuf@DU?$char_traits@D@std@@V?$allocator@D@2@@std@@6B@ 100341b8     HID.obj
 0002:0000e1f4       ??_7ObjectWrap@Nan@@6B@    100341f4     HID.obj
 0002:0000e200       ??_8?$basic_ostringstream@DU?$char_traits@D@std@@V?$allocator@D@2@@std@@7B@ 10034200     HID.obj
 0002:0000e208       ??_7?$basic_ostream@DU?$char_traits@D@std@@@std@@6B@ 10034208     HID.obj
 0002:0000e20c       ??_7failure@ios_base@std@@6B@ 1003420c     HID.obj
 0002:0000e218       ??_C@_07FGKIDIDM@hid?4dll@ 10034218     hidapi:hid.obj
 0002:0000e220       ??_C@_0BD@CBOMEPHA@HidD_GetAttributes@ 10034220     hidapi:hid.obj
 0002:0000e234       ??_C@_0BL@OEJFEOIE@HidD_GetSerialNumberString@ 10034234     hidapi:hid.obj
 0002:0000e250       ??_C@_0BL@NLNJBEKH@HidD_GetManufacturerString@ 10034250     hidapi:hid.obj
 0002:0000e26c       ??_C@_0BG@NNFFPJLB@HidD_GetProductString@ 1003426c     hidapi:hid.obj
 0002:0000e284       ??_C@_0BA@ENIKBGID@HidD_SetFeature@ 10034284     hidapi:hid.obj
 0002:0000e294       ??_C@_0BA@FDKFKBMK@HidD_GetFeature@ 10034294     hidapi:hid.obj
 0002:0000e2a4       ??_C@_0BG@HBEPJNGD@HidD_GetIndexedString@ 100342a4     hidapi:hid.obj
 0002:0000e2bc       ??_C@_0BG@NCCNKODK@HidD_GetPreparsedData@ 100342bc     hidapi:hid.obj
 0002:0000e2d4       ??_C@_0BH@HPJNKOKM@HidD_FreePreparsedData@ 100342d4     hidapi:hid.obj
 0002:0000e2ec       ??_C@_0N@PAEDFHIM@HidP_GetCaps@ 100342ec     hidapi:hid.obj
 0002:0000e2fc       ??_C@_0BI@HGIMLKHJ@HidD_SetNumInputBuffers@ 100342fc     hidapi:hid.obj
 0002:0000e314       ??_C@_08POBLEMDG@HIDClass@ 10034314     hidapi:hid.obj
 0002:0000e320       ??_C@_04MEDFEMKM@?$CGmi_@  10034320     hidapi:hid.obj
 0002:0000e328       __real@4202a05f20000000    10034328     HID.obj
 0002:0000e330       __real@bff0000000000000    10034330     HID.obj
 0002:0000e340       __xmm@7fffffffffffffff7fffffffffffffff 10034340     HID.obj
 0002:0000e3c0       __load_config_used         100343c0     LIBCMT:loadcfg.obj
 0002:0000e460       ??_R4exception@std@@6B@    10034460     libcpmt:xonce.obj
 0002:0000e474       ??_R3exception@std@@8      10034474     libcpmt:xonce.obj
 0002:0000e484       ??_R2exception@std@@8      10034484     libcpmt:xonce.obj
 0002:0000e48c       ??_R1A@?0A@EA@exception@std@@8 1003448c     libcpmt:xonce.obj
 0002:0000e4a8       ??_R4runtime_error@std@@6B@ 100344a8     libcpmt:xonce.obj
 0002:0000e4bc       ??_R3runtime_error@std@@8  100344bc     libcpmt:xonce.obj
 0002:0000e4cc       ??_R2runtime_error@std@@8  100344cc     libcpmt:xonce.obj
 0002:0000e4d8       ??_R1A@?0A@EA@runtime_error@std@@8 100344d8     libcpmt:xonce.obj
 0002:0000e4f4       ??_R4_System_error@std@@6B@ 100344f4     libcpmt:xonce.obj
 0002:0000e508       ??_R3_System_error@std@@8  10034508     libcpmt:xonce.obj
 0002:0000e518       ??_R2_System_error@std@@8  10034518     libcpmt:xonce.obj
 0002:0000e528       ??_R1A@?0A@EA@_System_error@std@@8 10034528     libcpmt:xonce.obj
 0002:0000e544       ??_R4_Facet_base@std@@6B@  10034544     libcpmt:locale0.obj
 0002:0000e558       ??_R3_Facet_base@std@@8    10034558     libcpmt:locale0.obj
 0002:0000e568       ??_R2_Facet_base@std@@8    10034568     libcpmt:locale0.obj
 0002:0000e570       ??_R1A@?0A@EA@_Facet_base@std@@8 10034570     libcpmt:locale0.obj
 0002:0000e58c       ??_R4_Locimp@locale@std@@6B@ 1003458c     libcpmt:locale0.obj
 0002:0000e5a0       ??_R3_Locimp@locale@std@@8 100345a0     libcpmt:locale0.obj
 0002:0000e5b0       ??_R2_Locimp@locale@std@@8 100345b0     libcpmt:locale0.obj
 0002:0000e5c4       ??_R1A@?0A@EA@_Locimp@locale@std@@8 100345c4     libcpmt:locale0.obj
 0002:0000e5e0       ??_R1A@?0A@EA@facet@locale@std@@8 100345e0     libcpmt:locale0.obj
 0002:0000e5fc       ??_R3facet@locale@std@@8   100345fc     libcpmt:locale0.obj
 0002:0000e60c       ??_R2facet@locale@std@@8   1003460c     libcpmt:locale0.obj
 0002:0000e61c       ??_R13?0A@EA@_Crt_new_delete@std@@8 1003461c     libcpmt:locale0.obj
 0002:0000e638       ??_R3_Crt_new_delete@std@@8 10034638     libcpmt:locale0.obj
 0002:0000e648       ??_R2_Crt_new_delete@std@@8 10034648     libcpmt:locale0.obj
 0002:0000e650       ??_R1A@?0A@EA@_Crt_new_delete@std@@8 10034650     libcpmt:locale0.obj
 0002:0000e66c       ??_R4bad_alloc@std@@6B@    1003466c     libcpmt:xthrow.obj
 0002:0000e680       ??_R3bad_alloc@std@@8      10034680     libcpmt:xthrow.obj
 0002:0000e690       ??_R2bad_alloc@std@@8      10034690     libcpmt:xthrow.obj
 0002:0000e69c       ??_R1A@?0A@EA@bad_alloc@std@@8 1003469c     libcpmt:xthrow.obj
 0002:0000e6b8       ??_R4logic_error@std@@6B@  100346b8     libcpmt:xthrow.obj
 0002:0000e6cc       ??_R3logic_error@std@@8    100346cc     libcpmt:xthrow.obj
 0002:0000e6dc       ??_R2logic_error@std@@8    100346dc     libcpmt:xthrow.obj
 0002:0000e6e8       ??_R1A@?0A@EA@logic_error@std@@8 100346e8     libcpmt:xthrow.obj
 0002:0000e704       ??_R4length_error@std@@6B@ 10034704     libcpmt:xthrow.obj
 0002:0000e718       ??_R3length_error@std@@8   10034718     libcpmt:xthrow.obj
 0002:0000e728       ??_R2length_error@std@@8   10034728     libcpmt:xthrow.obj
 0002:0000e738       ??_R1A@?0A@EA@length_error@std@@8 10034738     libcpmt:xthrow.obj
 0002:0000e754       ??_R4out_of_range@std@@6B@ 10034754     libcpmt:xthrow.obj
 0002:0000e768       ??_R3out_of_range@std@@8   10034768     libcpmt:xthrow.obj
 0002:0000e778       ??_R2out_of_range@std@@8   10034778     libcpmt:xthrow.obj
 0002:0000e788       ??_R1A@?0A@EA@out_of_range@std@@8 10034788     libcpmt:xthrow.obj
 0002:0000e7a4       ??_R3ctype_base@std@@8     100347a4     libcpmt:locale.obj
 0002:0000e7b4       ??_R2ctype_base@std@@8     100347b4     libcpmt:locale.obj
 0002:0000e7c8       ??_R1A@?0A@EA@ctype_base@std@@8 100347c8     libcpmt:locale.obj
 0002:0000e7e4       ??_R4?$ctype@D@std@@6B@    100347e4     libcpmt:locale.obj
 0002:0000e7f8       ??_R3?$ctype@D@std@@8      100347f8     libcpmt:locale.obj
 0002:0000e808       ??_R2?$ctype@D@std@@8      10034808     libcpmt:locale.obj
 0002:0000e820       ??_R1A@?0A@EA@?$ctype@D@std@@8 10034820     libcpmt:locale.obj
 0002:0000e83c       ??_R4?$num_put@DV?$ostreambuf_iterator@DU?$char_traits@D@std@@@std@@@std@@6B@ 1003483c     libcpmt:locale.obj
 0002:0000e850       ??_R3?$num_put@DV?$ostreambuf_iterator@DU?$char_traits@D@std@@@std@@@std@@8 10034850     libcpmt:locale.obj
 0002:0000e860       ??_R2?$num_put@DV?$ostreambuf_iterator@DU?$char_traits@D@std@@@std@@@std@@8 10034860     libcpmt:locale.obj
 0002:0000e874       ??_R1A@?0A@EA@?$num_put@DV?$ostreambuf_iterator@DU?$char_traits@D@std@@@std@@@std@@8 10034874     libcpmt:locale.obj
 0002:0000e890       ??_R4?$numpunct@D@std@@6B@ 10034890     libcpmt:locale.obj
 0002:0000e8a4       ??_R3?$numpunct@D@std@@8   100348a4     libcpmt:locale.obj
 0002:0000e8b4       ??_R2?$numpunct@D@std@@8   100348b4     libcpmt:locale.obj
 0002:0000e8c8       ??_R1A@?0A@EA@?$numpunct@D@std@@8 100348c8     libcpmt:locale.obj
 0002:0000e8e4       ??_R4type_info@@6B@        100348e4     LIBCMT:std_type_info_static.obj
 0002:0000e8f8       ??_R3type_info@@8          100348f8     LIBCMT:std_type_info_static.obj
 0002:0000e908       ??_R2type_info@@8          10034908     LIBCMT:std_type_info_static.obj
 0002:0000e910       ??_R1A@?0A@EA@type_info@@8 10034910     LIBCMT:std_type_info_static.obj
 0002:0000e92c       ??_R4bad_array_new_length@std@@6B@ 1003492c     LIBCMT:throw_bad_alloc.obj
 0002:0000e940       ??_R3bad_array_new_length@std@@8 10034940     LIBCMT:throw_bad_alloc.obj
 0002:0000e950       ??_R2bad_array_new_length@std@@8 10034950     LIBCMT:throw_bad_alloc.obj
 0002:0000e960       ??_R1A@?0A@EA@bad_array_new_length@std@@8 10034960     LIBCMT:throw_bad_alloc.obj
 0002:0000e97c       ??_R4bad_exception@std@@6B@ 1003497c     libvcruntime:frame.obj
 0002:0000e990       ??_R3bad_exception@std@@8  10034990     libvcruntime:frame.obj
 0002:0000e9a0       ??_R2bad_exception@std@@8  100349a0     libvcruntime:frame.obj
 0002:0000e9ac       ??_R1A@?0A@EA@bad_exception@std@@8 100349ac     libvcruntime:frame.obj
 0002:0000e9d0       ___safe_se_handler_table   100349d0     <linker-defined>
 0002:0000ed94       ___rtc_iaa                 10034d94     LIBCMT:initsect.obj
 0002:0000ed98       ___rtc_izz                 10034d98     LIBCMT:initsect.obj
 0002:0000ed9c       ___rtc_taa                 10034d9c     LIBCMT:initsect.obj
 0002:0000eda0       ___rtc_tzz                 10034da0     LIBCMT:initsect.obj
 0002:0000efb8       __CT??_R0?AVexception@std@@@8??0exception@std@@QAE@ABV01@@Z12 10034fb8     libcpmt:xonce.obj
 0002:0000f050       __TI2?AVbad_alloc@std@@    10035050     libcpmt:xthrow.obj
 0002:0000f060       __CTA2?AVbad_alloc@std@@   10035060     libcpmt:xthrow.obj
 0002:0000f06c       __CT??_R0?AVbad_alloc@std@@@8??0bad_alloc@std@@QAE@ABV01@@Z12 1003506c     libcpmt:xthrow.obj
 0002:0000f088       __CT??_R0?AVlogic_error@std@@@8??0logic_error@std@@QAE@ABV01@@Z12 10035088     libcpmt:xthrow.obj
 0002:0000f0a4       __TI3?AVlength_error@std@@ 100350a4     libcpmt:xthrow.obj
 0002:0000f0b4       __CTA3?AVlength_error@std@@ 100350b4     libcpmt:xthrow.obj
 0002:0000f0c4       __CT??_R0?AVlength_error@std@@@8??0length_error@std@@QAE@ABV01@@Z12 100350c4     libcpmt:xthrow.obj
 0002:0000f0e0       __TI3?AVout_of_range@std@@ 100350e0     libcpmt:xthrow.obj
 0002:0000f0f0       __CTA3?AVout_of_range@std@@ 100350f0     libcpmt:xthrow.obj
 0002:0000f100       __CT??_R0?AVout_of_range@std@@@8??0out_of_range@std@@QAE@ABV01@@Z12 10035100     libcpmt:xthrow.obj
 0002:0000f19c       __TI3?AVbad_array_new_length@std@@ 1003519c     LIBCMT:throw_bad_alloc.obj
 0002:0000f1ac       __CTA3?AVbad_array_new_length@std@@ 100351ac     LIBCMT:throw_bad_alloc.obj
 0002:0000f1bc       __CT??_R0?AVbad_array_new_length@std@@@8??0bad_array_new_length@std@@QAE@ABV01@@Z12 100351bc     LIBCMT:throw_bad_alloc.obj
 0002:0000f2dc       __TI2?AVbad_exception@std@@ 100352dc     libvcruntime:frame.obj
 0002:0000f2ec       __CTA2?AVbad_exception@std@@ 100352ec     libvcruntime:frame.obj
 0002:0000f2f8       __CT??_R0?AVbad_exception@std@@@8??0bad_exception@std@@QAE@ABV01@@Z12 100352f8     libvcruntime:frame.obj
 0002:0000f77c       __CTA1?AVJSException@@     1003577c     HID.obj
 0002:0000f784       __CT??_R0?AVJSException@@@8??0JSException@@QAE@ABV0@@Z28 10035784     HID.obj
 0002:0000f7a0       __TI1?AVJSException@@      100357a0     HID.obj
 0002:0000f9dc       __IMPORT_DESCRIPTOR_KERNEL32 100359dc     kernel32:KERNEL32.dll
 0002:0000f9f0       __IMPORT_DESCRIPTOR_node   100359f0     iojs:node.dll
 0002:0000fa04       __IMPORT_DESCRIPTOR_SETUPAPI 10035a04     setupapi:SETUPAPI.dll
 0002:0000fa18       __NULL_IMPORT_DESCRIPTOR   10035a18     kernel32:KERNEL32.dll
 0003:00000004       ?_Sync@ios_base@std@@0_NA  10038004     libcpmt:ios.obj
 0003:00000008       ?_PJP_CPP_Copyright@@3PADA 10038008     libcpmt:iosptrs.obj
 0003:00000060       ___scrt_native_dllmain_reason 10038060     LIBCMT:utility.obj
 0003:00000064       ___security_cookie_complement 10038064     LIBCMT:gs_cookie.obj
 0003:00000068       ___security_cookie         10038068     LIBCMT:gs_cookie.obj
 0003:0000006c       __fltused                  1003806c     LIBCMT:fltused.obj
 0003:00000070       ___isa_enabled             10038070     LIBCMT:cpu_disp.obj
 0003:00000090       __NLG_Destination          10038090     libvcruntime:exsup.obj
 0003:000000a0       ___abort_behavior          100380a0     libucrt:abort.obj
 0003:000000b0       ___acrt_lconv_c            100380b0     libucrt:localeconv.obj
 0003:00000100       ___acrt_lconv              10038100     libucrt:localeconv.obj
 0003:00000104       ___acrt_lconv_static_decimal 10038104     libucrt:localeconv.obj
 0003:00000108       ___acrt_lconv_static_W_decimal 10038108     libucrt:localeconv.obj
 0003:00000110       __pctype                   10038110     libucrt:ctype.obj
 0003:00000114       __pwctype                  10038114     libucrt:ctype.obj
 0003:00000128       ___acrt_initial_locale_data 10038128     libucrt:nlsdata.obj
 0003:000001e0       ___acrt_initial_locale_pointers 100381e0     libucrt:nlsdata.obj
 0003:000001e8       ___acrt_wide_c_locale_string 100381e8     libucrt:nlsdata.obj
 0003:000001ec       ___mb_cur_max              100381ec     libucrt:nlsdata.obj
 0003:000001f0       __iob                      100381f0     libucrt:_file.obj
 0003:00000298       ___badioinfo               10038298     libucrt:ioinit.obj
 0003:000002c8       ___globallocalestatus      100382c8     libucrt:glstatus.obj
 0003:00000358       ___acrt_initial_multibyte_data 10038358     libucrt:mbctype.obj
 0003:000008b8       ??_R0?AV_System_error@std@@@8 100388b8     libcpmt:xonce.obj
 0003:000008d8       ??_R0?AVruntime_error@std@@@8 100388d8     libcpmt:xonce.obj
 0003:000008f8       ??_R0?AVexception@std@@@8  100388f8     libcpmt:xonce.obj
 0003:00000914       ??_R0?AV_Facet_base@std@@@8 10038914     libcpmt:locale0.obj
 0003:00000934       ??_R0?AV_Locimp@locale@std@@@8 10038934     libcpmt:locale0.obj
 0003:00000958       ??_R0?AVfacet@locale@std@@@8 10038958     libcpmt:locale0.obj
 0003:00000978       ??_R0?AU_Crt_new_delete@std@@@8 10038978     libcpmt:locale0.obj
 0003:0000099c       ??_R0?AVbad_alloc@std@@@8  1003899c     libcpmt:xthrow.obj
 0003:000009b8       ??_R0?AVlogic_error@std@@@8 100389b8     libcpmt:xthrow.obj
 0003:000009d8       ??_R0?AVlength_error@std@@@8 100389d8     libcpmt:xthrow.obj
 0003:000009f8       ??_R0?AVout_of_range@std@@@8 100389f8     libcpmt:xthrow.obj
 0003:00000a18       ??_R0?AUctype_base@std@@@8 10038a18     libcpmt:locale.obj
 0003:00000a38       ??_R0?AV?$ctype@D@std@@@8  10038a38     libcpmt:locale.obj
 0003:00000a58       ??_R0?AV?$num_put@DV?$ostreambuf_iterator@DU?$char_traits@D@std@@@std@@@std@@@8 10038a58     libcpmt:locale.obj
 0003:00000aac       ??_R0?AV?$numpunct@D@std@@@8 10038aac     libcpmt:locale.obj
 0003:00000acc       ??_R0?AVtype_info@@@8      10038acc     LIBCMT:std_type_info_static.obj
 0003:00000ae4       ??_R0?AVbad_array_new_length@std@@@8 10038ae4     LIBCMT:throw_bad_alloc.obj
 0003:00000b0c       ??_R0?AVbad_exception@std@@@8 10038b0c     libvcruntime:frame.obj
 0003:00000b2c       ??_R0?AVJSException@@@8    10038b2c     HID.obj
 0003:00000c10       ?_Id_cnt@id@locale@std@@0HA 10038c10     libcpmt:locale0.obj
 0003:00000c14       ?_Clocptr@_Locimp@locale@std@@0PAV123@A 10038c14     libcpmt:locale0.obj
 0003:00000c18       ?id@?$ctype@G@std@@2V0locale@2@A 10038c18     libcpmt:locale0.obj
 0003:00000c1c       ?id@?$codecvt@_WDU_Mbstatet@@@std@@2V0locale@2@A 10038c1c     libcpmt:locale0.obj
 0003:00000c20       ?id@?$codecvt@GDU_Mbstatet@@@std@@2V0locale@2@A 10038c20     libcpmt:locale0.obj
 0003:00000c24       ?id@?$ctype@_W@std@@2V0locale@2@A 10038c24     libcpmt:locale0.obj
 0003:00000c28       ?id@?$ctype@D@std@@2V0locale@2@A 10038c28     libcpmt:locale0.obj
 0003:00000c44       ?_Index@ios_base@std@@0HA  10038c44     libcpmt:ios.obj
 0003:00000c7c       ?_Raise_handler@std@@3P6AXABVexception@stdext@@@ZA 10038c7c     libcpmt:raisehan.obj
 0003:00000c80       ___encodedKERNEL32Functions 10038c80     libcpmt:winapisupp.obj
 0003:00000d20       ?id@?$num_get@DV?$istreambuf_iterator@DU?$char_traits@D@std@@@std@@@std@@2V0locale@2@A 10038d20     libcpmt:locale.obj
 0003:00000d24       ?id@?$codecvt@DDU_Mbstatet@@@std@@2V0locale@2@A 10038d24     libcpmt:locale.obj
 0003:00000d28       ?_Ptr_cin@std@@3PAV?$basic_istream@DU?$char_traits@D@std@@@1@A 10038d28     libcpmt:iosptrs.obj
 0003:00000d2c       ?_Ptr_cout@std@@3PAV?$basic_ostream@DU?$char_traits@D@std@@@1@A 10038d2c     libcpmt:iosptrs.obj
 0003:00000d30       ?_Ptr_cerr@std@@3PAV?$basic_ostream@DU?$char_traits@D@std@@@1@A 10038d30     libcpmt:iosptrs.obj
 0003:00000d34       ?_Ptr_clog@std@@3PAV?$basic_ostream@DU?$char_traits@D@std@@@1@A 10038d34     libcpmt:iosptrs.obj
 0003:00000d38       ?_Ptr_wcin@std@@3PAV?$basic_istream@_WU?$char_traits@_W@std@@@1@A 10038d38     libcpmt:iosptrs.obj
 0003:00000d3c       ?_Ptr_wcout@std@@3PAV?$basic_ostream@_WU?$char_traits@_W@std@@@1@A 10038d3c     libcpmt:iosptrs.obj
 0003:00000d40       ?_Ptr_wcerr@std@@3PAV?$basic_ostream@_WU?$char_traits@_W@std@@@1@A 10038d40     libcpmt:iosptrs.obj
 0003:00000d44       ?_Ptr_wclog@std@@3PAV?$basic_ostream@_WU?$char_traits@_W@std@@@1@A 10038d44     libcpmt:iosptrs.obj
 0003:00000d74       ?id@?$time_put@_WV?$ostreambuf_iterator@_WU?$char_traits@_W@std@@@std@@@std@@2V0locale@2@A 10038d74     libcpmt:wlocale.obj
 0003:00000d78       ?id@?$num_get@_WV?$istreambuf_iterator@_WU?$char_traits@_W@std@@@std@@@std@@2V0locale@2@A 10038d78     libcpmt:wlocale.obj
 0003:00000d7c       ?id@?$num_put@_WV?$ostreambuf_iterator@_WU?$char_traits@_W@std@@@std@@@std@@2V0locale@2@A 10038d7c     libcpmt:wlocale.obj
 0003:00000d80       ?id@?$numpunct@_W@std@@2V0locale@2@A 10038d80     libcpmt:wlocale.obj
 0003:00000d84       ?id@?$collate@_W@std@@2V0locale@2@A 10038d84     libcpmt:wlocale.obj
 0003:00000d88       ?id@?$messages@_W@std@@2V0locale@2@A 10038d88     libcpmt:wlocale.obj
 0003:00000d8c       ?id@?$money_get@_WV?$istreambuf_iterator@_WU?$char_traits@_W@std@@@std@@@std@@2V0locale@2@A 10038d8c     libcpmt:wlocale.obj
 0003:00000d90       ?id@?$money_put@_WV?$ostreambuf_iterator@_WU?$char_traits@_W@std@@@std@@@std@@2V0locale@2@A 10038d90     libcpmt:wlocale.obj
 0003:00000d94       ?id@?$moneypunct@_W$0A@@std@@2V0locale@2@A 10038d94     libcpmt:wlocale.obj
 0003:00000d98       ?id@?$moneypunct@_W$00@std@@2V0locale@2@A 10038d98     libcpmt:wlocale.obj
 0003:00000d9c       ?id@?$time_get@_WV?$istreambuf_iterator@_WU?$char_traits@_W@std@@@std@@@std@@2V0locale@2@A 10038d9c     libcpmt:wlocale.obj
 0003:00000da0       ?id@?$num_get@GV?$istreambuf_iterator@GU?$char_traits@G@std@@@std@@@std@@2V0locale@2@A 10038da0     libcpmt:wlocale.obj
 0003:00000da4       ?id@?$num_put@GV?$ostreambuf_iterator@GU?$char_traits@G@std@@@std@@@std@@2V0locale@2@A 10038da4     libcpmt:wlocale.obj
 0003:00000da8       ?id@?$numpunct@G@std@@2V0locale@2@A 10038da8     libcpmt:wlocale.obj
 0003:00000dac       ?id@?$collate@G@std@@2V0locale@2@A 10038dac     libcpmt:wlocale.obj
 0003:00000db0       ?id@?$messages@G@std@@2V0locale@2@A 10038db0     libcpmt:wlocale.obj
 0003:00000db4       ?id@?$money_get@GV?$istreambuf_iterator@GU?$char_traits@G@std@@@std@@@std@@2V0locale@2@A 10038db4     libcpmt:wlocale.obj
 0003:00000db8       ?id@?$money_put@GV?$ostreambuf_iterator@GU?$char_traits@G@std@@@std@@@std@@2V0locale@2@A 10038db8     libcpmt:wlocale.obj
 0003:00000dbc       ?id@?$moneypunct@G$0A@@std@@2V0locale@2@A 10038dbc     libcpmt:wlocale.obj
 0003:00000dc0       ?id@?$moneypunct@G$00@std@@2V0locale@2@A 10038dc0     libcpmt:wlocale.obj
 0003:00000dc4       ?id@?$time_get@GV?$istreambuf_iterator@GU?$char_traits@G@std@@@std@@@std@@2V0locale@2@A 10038dc4     libcpmt:wlocale.obj
 0003:00000dc8       ?id@?$time_put@GV?$ostreambuf_iterator@GU?$char_traits@G@std@@@std@@@std@@2V0locale@2@A 10038dc8     libcpmt:wlocale.obj
 0003:00000dcc       ?id@?$collate@D@std@@2V0locale@2@A 10038dcc     libcpmt:xlocale.obj
 0003:00000dd0       ?id@?$messages@D@std@@2V0locale@2@A 10038dd0     libcpmt:xlocale.obj
 0003:00000dd4       ?id@?$money_get@DV?$istreambuf_iterator@DU?$char_traits@D@std@@@std@@@std@@2V0locale@2@A 10038dd4     libcpmt:xlocale.obj
 0003:00000dd8       ?id@?$money_put@DV?$ostreambuf_iterator@DU?$char_traits@D@std@@@std@@@std@@2V0locale@2@A 10038dd8     libcpmt:xlocale.obj
 0003:00000ddc       ?id@?$moneypunct@D$0A@@std@@2V0locale@2@A 10038ddc     libcpmt:xlocale.obj
 0003:00000de0       ?id@?$moneypunct@D$00@std@@2V0locale@2@A 10038de0     libcpmt:xlocale.obj
 0003:00000de4       ?id@?$time_get@DV?$istreambuf_iterator@DU?$char_traits@D@std@@@std@@@std@@2V0locale@2@A 10038de4     libcpmt:xlocale.obj
 0003:00000de8       ?id@?$time_put@DV?$ostreambuf_iterator@DU?$char_traits@D@std@@@std@@@std@@2V0locale@2@A 10038de8     libcpmt:xlocale.obj
 0003:0000110c       ___scrt_current_native_startup_state 1003910c     LIBCMT:utility.obj
 0003:00001110       ___scrt_native_startup_lock 10039110     LIBCMT:utility.obj
 0003:00001130       ?__type_info_root_node@@3U__type_info_node@@A 10039130     LIBCMT:tncleanup.obj
 0003:00001138       ?_OptionsStorage@?1??__local_stdio_scanf_options@@9@4_KA 10039138     LIBCMT:default_local_stdio_options.obj
 0003:00001140       ___scrt_debugger_hook_flag 10039140     LIBCMT:utility_desktop.obj
 0003:00001144       ___isa_available           10039144     LIBCMT:cpu_disp.obj
 0003:00001148       ___favor                   10039148     LIBCMT:cpu_disp.obj
 0003:0000114c       ?__WinRTOutOfMemoryExceptionCallback@@3P6GPAXXZA 1003914c     libvcruntime:ehhelpers.obj
 0003:00001150       ___pPurecall               10039150     libvcruntime:purevirt_data.obj
 0003:000011b8       ?pArgList@UnDecorator@@0PAVReplicator@@A 100391b8     libvcruntime:undname.obj
 0003:000011bc       ?pZNameList@UnDecorator@@0PAVReplicator@@A 100391bc     libvcruntime:undname.obj
 0003:000011c0       ?pTemplateArgList@UnDecorator@@0PAVReplicator@@A 100391c0     libvcruntime:undname.obj
 0003:000011c4       ?gName@UnDecorator@@0PBDB  100391c4     libvcruntime:undname.obj
 0003:000011c8       ?name@UnDecorator@@0PBDB   100391c8     libvcruntime:undname.obj
 0003:000011cc       ?disableFlags@UnDecorator@@0KA 100391cc     libvcruntime:undname.obj
 0003:000011d0       ?fExplicitTemplateParams@UnDecorator@@0_NA 100391d0     libvcruntime:undname.obj
 0003:000011d1       ?fGetTemplateArgumentList@UnDecorator@@0_NA 100391d1     libvcruntime:undname.obj
 0003:000011d4       ?m_pGetParameter@UnDecorator@@0P6APADJ@ZA 100391d4     libvcruntime:undname.obj
 0003:000011d8       ?m_CHPENameOffset@UnDecorator@@0KA 100391d8     libvcruntime:undname.obj
 0003:000011dc       ?m_recursionLevel@UnDecorator@@0KA 100391dc     libvcruntime:undname.obj
 0003:000011f8       ___acrt_lconv_static_null  100391f8     libucrt:localeconv.obj
 0003:000011fc       ___acrt_lconv_static_W_null 100391fc     libucrt:localeconv.obj
 0003:00001360       ?c_exit_complete@?1???R<lambda_6e4b09c48022b2350581041d5f6b0c4c>@@QBE@XZ@4_NA 10039360     libucrt:exit.obj
 0003:00001470       __environ_table            10039470     libucrt:environment_initialization.obj
 0003:00001474       __wenviron_table           10039474     libucrt:environment_initialization.obj
 0003:00001478       ___dcrt_initial_wide_environment 10039478     libucrt:environment_initialization.obj
 0003:0000147c       ___dcrt_initial_narrow_environment 1003947c     libucrt:environment_initialization.obj
 0003:00001480       ___acrt_atexit_table       10039480     libucrt:onexit.obj
 0003:0000148c       ___acrt_at_quick_exit_table 1003948c     libucrt:onexit.obj
 0003:000014a8       ___acrt_locale_changed_data 100394a8     libucrt:wsetlocale.obj
 0003:000014ac       ___acrt_current_locale_data 100394ac     libucrt:nlsdata.obj
 0003:000014b8       __nstream                  100394b8     libucrt:_file.obj
 0003:000014bc       ___piob                    100394bc     libucrt:_file.obj
 0003:000014c0       __cflush                   100394c0     libucrt:_file.obj
 0003:000014c8       ___acrt_stdout_buffer      100394c8     libucrt:_sftbuf.obj
 0003:000014cc       ___acrt_stderr_buffer      100394cc     libucrt:_sftbuf.obj
 0003:000014d0       ___pioinfo                 100394d0     libucrt:ioinit.obj
 0003:000016d0       __nhandle                  100396d0     libucrt:ioinit.obj
 0003:000017bc       ___fastflag                100397bc     libucrt:fp_flags.obj
 0003:000017c0       ?_timezone@@3V?$dual_state_global@J@__crt_state_management@@A 100397c0     libucrt:timeset.obj
 0003:000017c4       ?_daylight@@3V?$dual_state_global@H@__crt_state_management@@A 100397c4     libucrt:timeset.obj
 0003:000017c8       ?_dstbias@@3V?$dual_state_global@J@__crt_state_management@@A 100397c8     libucrt:timeset.obj
 0003:0000188c       ___acrt_current_multibyte_data 1003988c     libucrt:mbctype.obj
 0003:00001890       __mbctype                  10039890     libucrt:mbctype.obj
 0003:00001894       __mbcasemap                10039894     libucrt:mbctype.obj
 0003:000018a0       ___argc                    100398a0     libucrt:argv_data.obj
 0003:000018a4       ___argv                    100398a4     libucrt:argv_data.obj
 0003:000018a8       ___wargv                   100398a8     libucrt:argv_data.obj
 0003:000018ac       __acmdln                   100398ac     libucrt:argv_data.obj
 0003:000018b0       __wcmdln                   100398b0     libucrt:argv_data.obj
 0003:000018b4       __pgmptr                   100398b4     libucrt:argv_data.obj
 0003:000018b8       ___acrt_heap               100398b8     libucrt:heap_handle.obj
 0003:000018d8       ?_Flag@?1???$_Immortalize@V_Iostream_error_category@std@@@std@@YAAAV_Iostream_error_category@1@XZ@4PAXA 100398d8     HID.obj
 0003:000018dc       ?_Psave@?$_Facetptr@V?$numpunct@D@std@@@std@@2PBVfacet@locale@2@B 100398dc     HID.obj
 0003:000018e0       ?_Psave@?$_Facetptr@V?$num_put@DV?$ostreambuf_iterator@DU?$char_traits@D@std@@@std@@@std@@@std@@2PBVfacet@locale@2@B 100398e0     HID.obj
 0003:000018e4       ?_Psave@?$_Facetptr@V?$ctype@D@std@@@std@@2PBVfacet@locale@2@B 100398e4     HID.obj
 0003:000018e8       ?id@?$num_put@DV?$ostreambuf_iterator@DU?$char_traits@D@std@@@std@@@std@@2V0locale@2@A 100398e8     HID.obj
 0003:000018ec       ?_Storage@?1???$_Immortalize@V_Iostream_error_category@std@@@std@@YAAAV_Iostream_error_category@1@XZ@4T?$_Align_type@H$07@1@A 100398ec     HID.obj
 0003:000018f8       ?_OptionsStorage@?1??__local_stdio_printf_options@@9@4_KA 100398f8     HID.obj
 0003:00001900       ?id@?$numpunct@D@std@@2V0locale@2@A 10039900     HID.obj
 0003:00001938       ___scrt_ucrt_dll_is_in_use 10039938     <common>
 0003:0000193c       ___dyn_tls_init_callback   1003993c     <common>
 0003:00001940       __pmatherr                 10039940     <common>
 0003:00001944       ___use_sse2_mathfcns       10039944     <common>

 entry point at        0001:00009577

 Static symbols

 0000:fffc2000       .debug$S                   10000000     kernel32:KERNEL32.dll
 0000:fffc2000       .debug$S                   10000000     iojs:node.dll
 0000:fffc2000       .debug$S                   10000000     iojs:node.dll
 0000:fffc2000       .debug$S                   10000000     iojs:node.dll
 0000:fffc2000       .debug$S                   10000000     iojs:node.dll
 0000:fffc2000       .debug$S                   10000000     iojs:node.dll
 0000:fffc2000       .debug$S                   10000000     iojs:node.dll
 0000:fffc2000       .debug$S                   10000000     iojs:node.dll
 0000:fffc2000       .debug$S                   10000000     iojs:node.dll
 0000:fffc2000       .debug$S                   10000000     iojs:node.dll
 0000:fffc2000       .debug$S                   10000000     iojs:node.dll
 0000:fffc2000       .debug$S                   10000000     iojs:node.dll
 0000:fffc2000       .debug$S                   10000000     iojs:node.dll
 0000:fffc2000       .debug$S                   10000000     iojs:node.dll
 0000:fffc2000       .debug$S                   10000000     setupapi:SETUPAPI.dll
 0000:fffc2000       .debug$S                   10000000     iojs:node.dll
 0000:fffc2000       .debug$S                   10000000     iojs:node.dll
 0000:fffc2000       .debug$S                   10000000     iojs:node.dll
 0000:fffc2000       .debug$S                   10000000     iojs:node.dll
 0000:fffc2000       .debug$S                   10000000     iojs:node.dll
 0000:fffc2000       .debug$S                   10000000     iojs:node.dll
 0000:fffc2000       .debug$S                   10000000     iojs:node.dll
 0000:fffc2000       .debug$S                   10000000     iojs:node.dll
 0000:fffc2000       .debug$S                   10000000     iojs:node.dll
 0000:fffc2000       .debug$S                   10000000     iojs:node.dll
 0000:fffc2000       .debug$S                   10000000     iojs:node.dll
 0000:fffc2000       .debug$S                   10000000     iojs:node.dll
 0000:fffc2000       .debug$S                   10000000     iojs:node.dll
 0000:fffc2000       .debug$S                   10000000     iojs:node.dll
 0000:fffc2000       .debug$S                   10000000     iojs:node.dll
 0000:fffc2000       .debug$S                   10000000     iojs:node.dll
 0000:fffc2000       .debug$S                   10000000     iojs:node.dll
 0000:fffc2000       .debug$S                   10000000     iojs:node.dll
 0000:fffc2000       .debug$S                   10000000     iojs:node.dll
 0000:fffc2000       .debug$S                   10000000     iojs:node.dll
 0000:fffc2000       .debug$S                   10000000     iojs:node.dll
 0000:fffc2000       .debug$S                   10000000     iojs:node.dll
 0000:fffc2000       .debug$S                   10000000     iojs:node.dll
 0000:fffc2000       .debug$S                   10000000     iojs:node.dll
 0000:fffc2000       .debug$S                   10000000     iojs:node.dll
 0000:fffc2000       .debug$S                   10000000     setupapi:SETUPAPI.dll
 0000:fffc2000       .debug$S                   10000000     iojs:node.dll
 0000:fffc2000       .debug$S                   10000000     setupapi:SETUPAPI.dll
 0000:fffc2000       .debug$S                   10000000     iojs:node.dll
 0000:fffc2000       .debug$S                   10000000     setupapi:SETUPAPI.dll
 0000:fffc2000       .debug$S                   10000000     iojs:node.dll
 0000:fffc2000       .debug$S                   10000000     setupapi:SETUPAPI.dll
 0000:fffc2000       .debug$S                   10000000     iojs:node.dll
 0000:fffc2000       .debug$S                   10000000     setupapi:SETUPAPI.dll
 0000:fffc2000       .debug$S                   10000000     iojs:node.dll
 0000:fffc2000       .debug$S                   10000000     kernel32:KERNEL32.dll
 0000:fffc2000       .debug$S                   10000000     iojs:node.dll
 0000:fffc2000       .debug$S                   10000000     kernel32:KERNEL32.dll
 0000:fffc2000       .debug$S                   10000000     kernel32:KERNEL32.dll
 0000:fffc2000       .debug$S                   10000000     kernel32:KERNEL32.dll
 0000:fffc2000       .debug$S                   10000000     kernel32:KERNEL32.dll
 0000:fffc2000       .debug$S                   10000000     kernel32:KERNEL32.dll
 0000:fffc2000       .debug$S                   10000000     iojs:node.dll
 0000:fffc2000       .debug$S                   10000000     iojs:node.dll
 0000:fffc2000       .debug$S                   10000000     iojs:node.dll
 0000:fffc2000       .debug$S                   10000000     iojs:node.dll
 0000:fffc2000       .debug$S                   10000000     iojs:node.dll
 0000:fffc2000       .debug$S                   10000000     iojs:node.dll
 0000:fffc2000       .debug$S                   10000000     iojs:node.dll
 0000:fffc2000       .debug$S                   10000000     iojs:node.dll
 0000:fffc2000       .debug$S                   10000000     iojs:node.dll
 0000:fffc2000       .debug$S                   10000000     iojs:node.dll
 0000:fffc2000       .debug$S                   10000000     iojs:node.dll
 0000:fffc2000       .debug$S                   10000000     iojs:node.dll
 0000:fffc2000       .debug$S                   10000000     iojs:node.dll
 0000:fffc2000       .debug$S                   10000000     iojs:node.dll
 0000:fffc2000       .debug$S                   10000000     iojs:node.dll
 0000:fffc2000       .debug$S                   10000000     iojs:node.dll
 0000:fffc2000       .debug$S                   10000000     iojs:node.dll
 0000:fffc2000       .debug$S                   10000000     iojs:node.dll
 0000:fffc2000       .debug$S                   10000000     iojs:node.dll
 0000:fffc2000       .debug$S                   10000000     iojs:node.dll
 0000:fffc2000       .debug$S                   10000000     iojs:node.dll
 0000:fffc2000       .debug$S                   10000000     iojs:node.dll
 0000:fffc2000       .debug$S                   10000000     iojs:node.dll
 0000:fffc2000       .debug$S                   10000000     HID.exp
 0000:fffc2000       .debug$S                   10000000     iojs:node.dll
 0000:fffc2000       .debug$S                   10000000     iojs:node.dll
 0000:fffc2000       .debug$S                   10000000     iojs:node.dll
 0000:fffc2000       .debug$S                   10000000     iojs:node.dll
 0000:fffc2000       .debug$S                   10000000     iojs:node.dll
 0000:fffc2000       .debug$S                   10000000     iojs:node.dll
 0000:fffc2000       .debug$S                   10000000     kernel32:KERNEL32.dll
 0000:fffc2000       .debug$S                   10000000     kernel32:KERNEL32.dll
 0000:fffc2000       .debug$S                   10000000     kernel32:KERNEL32.dll
 0000:fffc2000       .debug$S                   10000000     kernel32:KERNEL32.dll
 0000:fffc2000       .debug$S                   10000000     kernel32:KERNEL32.dll
 0000:fffc2000       .debug$S                   10000000     kernel32:KERNEL32.dll
 0000:fffc2000       .debug$S                   10000000     kernel32:KERNEL32.dll
 0000:fffc2000       .debug$S                   10000000     kernel32:KERNEL32.dll
 0000:fffc2000       .debug$S                   10000000     kernel32:KERNEL32.dll
 0000:fffc2000       .debug$S                   10000000     kernel32:KERNEL32.dll
 0000:fffc2000       .debug$S                   10000000     kernel32:KERNEL32.dll
 0000:fffc2000       .debug$S                   10000000     kernel32:KERNEL32.dll
 0000:fffc2000       .debug$S                   10000000     kernel32:KERNEL32.dll
 0000:fffc2000       .debug$S                   10000000     kernel32:KERNEL32.dll
 0000:fffc2000       .debug$S                   10000000     kernel32:KERNEL32.dll
 0000:fffc2000       .debug$S                   10000000     kernel32:KERNEL32.dll
 0000:fffc2000       .debug$S                   10000000     kernel32:KERNEL32.dll
 0000:fffc2000       .debug$S                   10000000     kernel32:KERNEL32.dll
 0000:fffc2000       .debug$S                   10000000     kernel32:KERNEL32.dll
 0000:fffc2000       .debug$S                   10000000     kernel32:KERNEL32.dll
 0000:fffc2000       .debug$S                   10000000     kernel32:KERNEL32.dll
 0000:fffc2000       .debug$S                   10000000     kernel32:KERNEL32.dll
 0000:fffc2000       .debug$S                   10000000     kernel32:KERNEL32.dll
 0000:fffc2000       .debug$S                   10000000     kernel32:KERNEL32.dll
 0000:fffc2000       .debug$S                   10000000     kernel32:KERNEL32.dll
 0000:fffc2000       .debug$S                   10000000     kernel32:KERNEL32.dll
 0000:fffc2000       .debug$S                   10000000     kernel32:KERNEL32.dll
 0000:fffc2000       .debug$S                   10000000     kernel32:KERNEL32.dll
 0000:fffc2000       .debug$S                   10000000     kernel32:KERNEL32.dll
 0000:fffc2000       .debug$S                   10000000     kernel32:KERNEL32.dll
 0000:fffc2000       .debug$S                   10000000     kernel32:KERNEL32.dll
 0000:fffc2000       .debug$S                   10000000     kernel32:KERNEL32.dll
 0000:fffc2000       .debug$S                   10000000     kernel32:KERNEL32.dll
 0000:fffc2000       .debug$S                   10000000     kernel32:KERNEL32.dll
 0000:fffc2000       .debug$S                   10000000     kernel32:KERNEL32.dll
 0000:fffc2000       .debug$S                   10000000     kernel32:KERNEL32.dll
 0000:fffc2000       .debug$S                   10000000     kernel32:KERNEL32.dll
 0000:fffc2000       .debug$S                   10000000     kernel32:KERNEL32.dll
 0000:fffc2000       .debug$S                   10000000     kernel32:KERNEL32.dll
 0000:fffc2000       .debug$S                   10000000     kernel32:KERNEL32.dll
 0000:fffc2000       .debug$S                   10000000     kernel32:KERNEL32.dll
 0000:fffc2000       .debug$S                   10000000     kernel32:KERNEL32.dll
 0000:fffc2000       .debug$S                   10000000     kernel32:KERNEL32.dll
 0000:fffc2000       .debug$S                   10000000     kernel32:KERNEL32.dll
 0000:fffc2000       .debug$S                   10000000     kernel32:KERNEL32.dll
 0000:fffc2000       .debug$S                   10000000     kernel32:KERNEL32.dll
 0000:fffc2000       .debug$S                   10000000     kernel32:KERNEL32.dll
 0000:fffc2000       .debug$S                   10000000     kernel32:KERNEL32.dll
 0000:fffc2000       .debug$S                   10000000     kernel32:KERNEL32.dll
 0000:fffc2000       .debug$S                   10000000     kernel32:KERNEL32.dll
 0000:fffc2000       .debug$S                   10000000     kernel32:KERNEL32.dll
 0000:fffc2000       .debug$S                   10000000     kernel32:KERNEL32.dll
 0000:fffc2000       .debug$S                   10000000     kernel32:KERNEL32.dll
 0000:fffc2000       .debug$S                   10000000     kernel32:KERNEL32.dll
 0000:fffc2000       .debug$S                   10000000     kernel32:KERNEL32.dll
 0000:fffc2000       .debug$S                   10000000     kernel32:KERNEL32.dll
 0000:fffc2000       .debug$S                   10000000     kernel32:KERNEL32.dll
 0000:fffc2000       .debug$S                   10000000     kernel32:KERNEL32.dll
 0000:fffc2000       .debug$S                   10000000     kernel32:KERNEL32.dll
 0000:fffc2000       .debug$S                   10000000     kernel32:KERNEL32.dll
 0000:fffc2000       .debug$S                   10000000     kernel32:KERNEL32.dll
 0000:fffc2000       .debug$S                   10000000     kernel32:KERNEL32.dll
 0000:fffc2000       .debug$S                   10000000     kernel32:KERNEL32.dll
 0000:fffc2000       .debug$S                   10000000     kernel32:KERNEL32.dll
 0000:fffc2000       .debug$S                   10000000     kernel32:KERNEL32.dll
 0000:fffc2000       .debug$S                   10000000     kernel32:KERNEL32.dll
 0000:fffc2000       .debug$S                   10000000     kernel32:KERNEL32.dll
 0000:fffc2000       .debug$S                   10000000     kernel32:KERNEL32.dll
 0000:fffc2000       .debug$S                   10000000     kernel32:KERNEL32.dll
 0000:fffc2000       .debug$S                   10000000     kernel32:KERNEL32.dll
 0000:fffc2000       .debug$S                   10000000     kernel32:KERNEL32.dll
 0000:fffc2000       .debug$S                   10000000     kernel32:KERNEL32.dll
 0000:fffc2000       .debug$S                   10000000     kernel32:KERNEL32.dll
 0000:fffc2000       .debug$S                   10000000     kernel32:KERNEL32.dll
 0000:fffc2000       .debug$S                   10000000     kernel32:KERNEL32.dll
 0000:fffc2000       .debug$S                   10000000     kernel32:KERNEL32.dll
 0000:fffc2000       .debug$S                   10000000     kernel32:KERNEL32.dll
 0000:fffc2000       .debug$S                   10000000     kernel32:KERNEL32.dll
 0000:fffc2000       .debug$S                   10000000     kernel32:KERNEL32.dll
 0000:fffc2000       .debug$S                   10000000     kernel32:KERNEL32.dll
 0000:fffc2000       .debug$S                   10000000     kernel32:KERNEL32.dll
 0000:fffc2000       .debug$S                   10000000     kernel32:KERNEL32.dll
 0000:fffc2000       .debug$S                   10000000     kernel32:KERNEL32.dll
 0000:fffc2000       .debug$S                   10000000     kernel32:KERNEL32.dll
 0000:fffc2000       .debug$S                   10000000     kernel32:KERNEL32.dll
 0000:fffc2000       .debug$S                   10000000     kernel32:KERNEL32.dll
 0001:00000000       ??__Einitlocks@std@@YAXXZ  10001000 f   libcpmt:xlock.obj
 0001:00000016       ??__E_Fac_tidy_reg@std@@YAXXZ 10001016 f   libcpmt:locale0.obj
 0001:00000022       ??__Eclassic_locale@std@@YAXXZ 10001022 f   libcpmt:locale0.obj
 0001:0000002e       ??__Einit_atexit@@YAXXZ    1000102e f   libcpmt:iosptrs.obj
 0001:0000003a       ??__Einitlocks@std@@YAXXZ  1000103a f   libcpmt:iosptrs.obj
 0001:000008b0       ?FunctionCallbackWrapper@imp@Nan@@YAXABV?$FunctionCallbackInfo@VValue@v8@@@v8@@@Z 100018b0 f   HID.obj
 0001:000025f9       __catch$?New@HID@@CAXABV?$FunctionCallbackInfo@VValue@v8@@@Nan@@@Z$0 100035f9 f   HID.obj
 0001:0000266f       __catch$?close@HID@@CAXABV?$FunctionCallbackInfo@VValue@v8@@@Nan@@@Z$0 1000366f f   HID.obj
 0001:0000271f       __catch$?setNonBlocking@HID@@CAXABV?$FunctionCallbackInfo@VValue@v8@@@Nan@@@Z$0 1000371f f   HID.obj
 0001:00002941       __catch$?write@HID@@CAXABV?$FunctionCallbackInfo@VValue@v8@@@Nan@@@Z$0 10003941 f   HID.obj
 0001:000029b0       ?narrow@@YA?AV?$basic_string@DU?$char_traits@D@std@@V?$allocator@D@2@@std@@PA_W@Z 100039b0 f   HID.obj
 0001:00002ed7       __catch$?getDeviceInfo@HID@@CAXABV?$FunctionCallbackInfo@VValue@v8@@@Nan@@@Z$0 10003ed7 f   HID.obj
 0001:00002fdb       __catch$?devices@HID@@SAXABV?$FunctionCallbackInfo@VValue@v8@@@Nan@@@Z$0 10003fdb f   HID.obj
 0001:00003750       ?deinitialize@@YAXPAX@Z    10004750 f   HID.obj
 0001:000039a0       _init                      100049a0 f   HID.obj
 0001:000039d0       __register_HID             100049d0 f   HID.obj
 0001:000046d0       _no_op_initialize          100056d0 f i libucrt:wsetlocale.obj
 0001:00007250       _register_error            10008250 f   hidapi:hid.obj
 0001:00008459       _tidy_global               10009459 f   libcpmt:locale0.obj
 0001:000089ab       ?initialize_pointers@@YAHXZ 100099ab f   libcpmt:winapisupp.obj
 0001:00009257       ?dllmain_crt_dispatch@@YGHQAUHINSTANCE__@@KQAX@Z 1000a257 f   LIBCMT:dll_dllmain.obj
 0001:000092aa       ?dllmain_crt_process_attach@@YAHQAUHINSTANCE__@@QAX@Z 1000a2aa f   LIBCMT:dll_dllmain.obj
 0001:000093b4       ?dllmain_crt_process_detach@@YAH_N@Z 1000a3b4 f   LIBCMT:dll_dllmain.obj
 0001:00009446       ?dllmain_dispatch@@YAHQAUHINSTANCE__@@KQAX@Z 1000a446 f   LIBCMT:dll_dllmain.obj
 0001:0000954c       ?dllmain_raw@@YGHQAUHINSTANCE__@@KQAX@Z 1000a54c f   LIBCMT:dll_dllmain.obj
 0001:000097b2       ?find_pe_section@@YAPAU_IMAGE_SECTION_HEADER@@QAEI@Z 1000a7b2 f   LIBCMT:utility.obj
 0001:00009bc0       $$000000                   1000abc0     LIBCMT:alloca16.obj
 0001:00009bf0       $$000000                   1000abf0     LIBCMT:llmul.obj
 0001:00009c30       $$000000                   1000ac30     LIBCMT:ulldiv.obj
 0001:00009ced       ___get_entropy             1000aced f   LIBCMT:gs_support.obj
 0001:00009f50       $$000000                   1000af50     LIBCMT:sehprolg4.obj
 0001:0000a160       $$000000                   1000b160     LIBCMT:chkstk.obj
 0001:0000a1c0       $$000000                   1000b1c0     libvcruntime:strstr.obj
 0001:0000a8c0       $$000000                   1000b8c0     libvcruntime:memcpy.obj
 0001:0000ab24       TrailingUpVec              1000bb24     libvcruntime:memcpy.obj
 0001:0000abd0       TrailingDownVec            1000bbd0     libvcruntime:memcpy.obj
 0001:0000ae40       $$000000                   1000be40     libvcruntime:memmove.obj
 0001:0000b0a4       TrailingUpVec              1000c0a4     libvcruntime:memmove.obj
 0001:0000b150       TrailingDownVec            1000c150     libvcruntime:memmove.obj
 0001:0000b3c0       $$000000                   1000c3c0     libvcruntime:memset.obj
 0001:0000b660       $$000000                   1000c660     libvcruntime:memchr.obj
 0001:0000c631       $LN1285                    1000d631     libvcruntime:memcmp.obj
 0001:0000c6c0       _ValidateLocalCookies      1000d6c0 f   libvcruntime:chandler4.obj
 0001:0000c930       $$000000                   1000d930     libvcruntime:strchr.obj
 0001:0000cb9b       ??$BuildCatchObjectHelperInternal@$$CBU_s_HandlerType@@@@YAHPAUEHExceptionRecord@@PAXPBU_s_HandlerType@@PBU_s_CatchableType@@@Z 1000db9b f   libvcruntime:frame.obj
 0001:0000ccda       ??$BuildCatchObjectInternal@$$CBU_s_HandlerType@@@@YAXPAUEHExceptionRecord@@PAXPBU_s_HandlerType@@PBU_s_CatchableType@@@Z 1000dcda f   libvcruntime:frame.obj
 0001:0000cd73       ??$CatchIt@V__FrameHandler3@@@@YAXPAUEHExceptionRecord@@PAUEHRegistrationNode@@PAU_CONTEXT@@PAXPBU_s_FuncInfo@@PBU_s_HandlerType@@PBU_s_CatchableType@@PBU_s_TryBlockMapEntry@@H1E@Z 1000dd73 f   libvcruntime:frame.obj
 0001:0000cdf3       ??$FindHandler@V__FrameHandler3@@@@YAXPAUEHExceptionRecord@@PAUEHRegistrationNode@@PAU_CONTEXT@@PAXPBU_s_FuncInfo@@EH1@Z 1000ddf3 f   libvcruntime:frame.obj
 0001:0000d181       ??$FindHandlerForForeignException@V__FrameHandler3@@@@YAXPAUEHExceptionRecord@@PAUEHRegistrationNode@@PAU_CONTEXT@@PAXPBU_s_FuncInfo@@HH1@Z 1000e181 f   libvcruntime:frame.obj
 0001:0000d474       ?CallCatchBlock@@YAPAXPAUEHExceptionRecord@@PAUEHRegistrationNode@@PAU_CONTEXT@@PBU_s_FuncInfo@@PAXHK@Z 1000e474 f   libvcruntime:frame.obj
 0001:0000d638       ?CallUnexpected@@YAXPBU_s_ESTypeList@@@Z 1000e638 f   libvcruntime:frame.obj
 0001:0000d658       __catch$?CallUnexpected@@YAXPBU_s_ESTypeList@@@Z$0 1000e658 f   libvcruntime:frame.obj
 0001:0000d672       ?ExFilterRethrow@@YAHPAU_EXCEPTION_POINTERS@@@Z 1000e672 f   libvcruntime:frame.obj
 0001:0000d7bc       ?IsInExceptionSpec@@YAEPAUEHExceptionRecord@@PBU_s_ESTypeList@@@Z 1000e7bc f   libvcruntime:frame.obj
 0001:0000d890       $$000000                   1000e890     libvcruntime:lowhelpr.obj
 0001:0000d940       $$000000                   1000e940     libvcruntime:exsup4.obj
 0001:0000d9d0       __unwind_handler4          1000e9d0 f   libvcruntime:exsup4.obj
 0001:0000db12       ?try_get_first_available_module@@YAPAUHINSTANCE__@@QBW4module_id@?A0x170b12c9@@0@Z 1000eb12 f   libvcruntime:winapi_downlevel.obj
 0001:0000dbd6       ?try_get_function@@YAPAXW4function_id@?A0x170b12c9@@QBDQBW4module_id@2@2@Z 1000ebd6 f   libvcruntime:winapi_downlevel.obj
 0001:0000de20       $$000000                   1000ee20     libvcruntime:exsup.obj
 0001:0000de41       __unwind_handler           1000ee41 f   libvcruntime:exsup.obj
 0001:0000e040       ?_mbstowcs_l_helper@@YAIPA_WPBDIPAU__crt_locale_pointers@@@Z 1000f040 f   libucrt:mbstowcs.obj
 0001:0000e550       $$000000                   1000f550     libucrt:strcspn.obj
 0001:0000e596       ??$?RV<lambda_75d23329f2fb3d02b2e1cf5509bb1caf>@@AAV<lambda_c4f131f91cb4ec00a5b0a26aa161b8b4>@@V<lambda_114dc79c86b00c313cb0b6b3b001aaf8>@@@?$__crt_seh_guarded_call@H@@QAEH$$QAV<lambda_75d23329f2fb3d02b2e1cf5509bb1caf>@@AAV<lambda_c4f131f91cb4ec00a5b0a26aa161b8b4>@@$$QAV<lambda_114dc79c86b00c313cb0b6b3b001aaf8>@@@Z 1000f596 f   libucrt:output.obj
 0001:0000e5e7       ??$common_vsprintf@Vformat_validation_base@__crt_stdio_output@@D@@YAH_KQADIQBDQAU__crt_locale_pointers@@1@Z 1000f5e7 f   libucrt:output.obj
 0001:0000e767       ??$common_vsprintf@Vstandard_base@__crt_stdio_output@@_W@@YAH_KQA_WIQB_WQAU__crt_locale_pointers@@QAD@Z 1000f767 f   libucrt:output.obj
 0001:0000e8f0       ??$common_vsprintf_s@D@@YAH_KQADIQBDQAU__crt_locale_pointers@@1@Z 1000f8f0 f   libucrt:output.obj
 0001:0000ef39       ??R<lambda_c4f131f91cb4ec00a5b0a26aa161b8b4>@@QBEHXZ 1000ff39 f   libucrt:output.obj
 0001:0000f32f       $LN52                      1001032f     libucrt:output.obj
 0001:0000f44f       $LN54                      1001044f     libucrt:output.obj
 0001:0000f56f       $LN54                      1001056f     libucrt:output.obj
 0001:00010329       $LN19                      10011329     libucrt:output.obj
 0001:0001133f       ??$common_assert_to_message_box@_W@@YAXQB_W0IQAX@Z 1001233f f   libucrt:assert.obj
 0001:000113db       ??$common_assert_to_message_box_build_string@_W@@YAXQA_WIQB_W1IQAX@Z 100123db f   libucrt:assert.obj
 0001:0001191a       ??$common_assert_to_stderr@_W@@YAXQB_W0I@Z 1001291a f   libucrt:assert.obj
 0001:000119c5       ?common_assert_to_stderr_direct@@YAXQB_W0I@Z 100129c5 f   libucrt:assert.obj
 0001:00011a76       ?get_assert_format@@YAPB_W_W@Z 10012a76 f   libucrt:assert.obj
 0001:00011b33       _memcpy_s                  10012b33 f   libucrt:mbctype.obj
 0001:00011b33       _memcpy_s                  10012b33 f   libucrt:cfout.obj
 0001:00011b33       _memcpy_s                  10012b33 f   libucrt:assert.obj
 0001:00011b33       _memcpy_s                  10012b33 f   libucrt:strtod.obj
 0001:00011c40       $$000000                   10012c40     libucrt:strncpy.obj
 0001:00012815       ??$?RV<lambda_0fef6fff2b5e6b53303c9058db11ae1f>@@AAV<lambda_082c17da81b0962e08c0587ee0fac50c>@@V<lambda_fa6e051aed0a38726081083cc7c328e9>@@@?$__crt_seh_guarded_call@PAD@@QAEPAD$$QAV<lambda_0fef6fff2b5e6b53303c9058db11ae1f>@@AAV<lambda_082c17da81b0962e08c0587ee0fac50c>@@$$QAV<lambda_fa6e051aed0a38726081083cc7c328e9>@@@Z 10013815 f   libucrt:setlocale.obj
 0001:00012866       ??R<lambda_082c17da81b0962e08c0587ee0fac50c>@@QBEPADXZ 10013866 f   libucrt:setlocale.obj
 0001:000129d1       _call_wsetlocale           100139d1 f   libucrt:setlocale.obj
 0001:000135d0       $$000000                   100145d0     libucrt:pow_impl.obj
 0001:000138d4       ??$common_tox_l@$1?internal_isupper_l@@YA_NHQAU__crt_locale_pointers@@@Z$1?internal_map_lower@@YAHH0@Z@@YAHHKQAU__crt_locale_pointers@@@Z 100148d4 f   libucrt:tolower_toupper.obj
 0001:00013a1e       ?internal_isupper_l@@YA_NHQAU__crt_locale_pointers@@@Z 10014a1e f   libucrt:tolower_toupper.obj
 0001:00014086       ??$?RV<lambda_03b1d95aef87969028cfba75ccab2455>@@AAV<lambda_6e4b09c48022b2350581041d5f6b0c4c>@@V<lambda_22bdf7517842c4b3e53723af5aa32b9e>@@@?$__crt_seh_guarded_call@X@@QAEX$$QAV<lambda_03b1d95aef87969028cfba75ccab2455>@@AAV<lambda_6e4b09c48022b2350581041d5f6b0c4c>@@$$QAV<lambda_22bdf7517842c4b3e53723af5aa32b9e>@@@Z 10015086 f   libucrt:exit.obj
 0001:000140c9       ??R<lambda_6e4b09c48022b2350581041d5f6b0c4c>@@QBE@XZ 100150c9 f   libucrt:exit.obj
 0001:000141a5       ?atexit_exception_filter@@YAHK@Z 100151a5 f   libucrt:exit.obj
 0001:000141b8       ?common_exit@@YAXHW4_crt_exit_cleanup_mode@@W4_crt_exit_return_mode@@@Z 100151b8 f   libucrt:exit.obj
 0001:0001421e       ?exit_or_terminate_process@@YAXI@Z 1001521e f   libucrt:exit.obj
 0001:00014260       ?is_managed_app@@YA_NXZ    10015260 f   libucrt:exit.obj
 0001:000142a4       ?try_cor_exit_process@@YAXI@Z 100152a4 f   libucrt:exit.obj
 0001:00014348       ??$common_configure_argv@D@@YAHW4_crt_argv_mode@@@Z 10015348 f   libucrt:argv_parsing.obj
 0001:00014480       ??$parse_command_line@D@@YAXPADPAPAD0PAI2@Z 10015480 f   libucrt:argv_parsing.obj
 0001:00014653       ??$common_initialize_environment_nolock@D@@YAHXZ 10015653 f   libucrt:environment_initialization.obj
 0001:000146a6       ??$create_environment@D@@YAQAPADQAD@Z 100156a6 f   libucrt:environment_initialization.obj
 0001:00014778       ??$free_environment@D@@YAXQAPAD@Z 10015778 f   libucrt:environment_initialization.obj
 0001:00014778       ??$free_environment@_W@@YAXQAPA_W@Z 10015778 f   libucrt:environment_initialization.obj
 0001:000147e7       ??$uninitialize_environment_internal@D@@YAXAAPAPAD@Z 100157e7 f   libucrt:environment_initialization.obj
 0001:00014802       ??$uninitialize_environment_internal@_W@@YAXAAPAPA_W@Z 10015802 f   libucrt:environment_initialization.obj
 0001:00014859       ??$?RV<lambda_69a2805e680e0e292e8ba93315fe43a8>@@AAV<lambda_f03950bc5685219e0bcd2087efbe011e>@@V<lambda_03fcd07e894ec930e3f35da366ca99d6>@@@?$__crt_seh_guarded_call@H@@QAEH$$QAV<lambda_69a2805e680e0e292e8ba93315fe43a8>@@AAV<lambda_f03950bc5685219e0bcd2087efbe011e>@@$$QAV<lambda_03fcd07e894ec930e3f35da366ca99d6>@@@Z 10015859 f   libucrt:onexit.obj
 0001:000148aa       ??$?RV<lambda_7ac4055421038abea736e08bd20712a4>@@AAV<lambda_a10e4b102d4a2c3aac6f4f48bbdf488f>@@V<lambda_1da61822885009acd1bf848af4f9644b>@@@?$__crt_seh_guarded_call@H@@QAEH$$QAV<lambda_7ac4055421038abea736e08bd20712a4>@@AAV<lambda_a10e4b102d4a2c3aac6f4f48bbdf488f>@@$$QAV<lambda_1da61822885009acd1bf848af4f9644b>@@@Z 100158aa f   libucrt:onexit.obj
 0001:0001491a       ??R<lambda_a10e4b102d4a2c3aac6f4f48bbdf488f>@@QBEHXZ 1001591a f   libucrt:onexit.obj
 0001:00014a5b       ??R<lambda_f03950bc5685219e0bcd2087efbe011e>@@QBEHXZ 10015a5b f   libucrt:onexit.obj
 0001:00014c36       _initialize_global_variables 10015c36 f   libucrt:initialization.obj
 0001:00014c43       _initialize_c              10015c43 f   libucrt:initialization.obj
 0001:00014c5d       _initialize_global_state_isolation 10015c5d f   libucrt:initialization.obj
 0001:00014c5d       _uninitialize_global_state_isolation 10015c5d f   libucrt:initialization.obj
 0001:00014c5d       _initialize_environment    10015c5d f   libucrt:initialization.obj
 0001:00014c5d       _uninitialize_c            10015c5d f   libucrt:initialization.obj
 0001:00014c5d       _report_memory_leaks       10015c5d f   libucrt:initialization.obj
 0001:00014c60       _uninitialize_environment  10015c60 f   libucrt:initialization.obj
 0001:00014c68       _initialize_pointers       10015c68 f   libucrt:initialization.obj
 0001:00014ca5       _uninitialize_vcruntime    10015ca5 f   libucrt:initialization.obj
 0001:00014cae       _uninitialize_allocated_memory 10015cae f   libucrt:initialization.obj
 0001:00014cc7       _uninitialize_allocated_io_buffers 10015cc7 f   libucrt:initialization.obj
 0001:00014d17       ??R<lambda_af42a3ee9806e9a7305d451646e05244>@@QBEXAAPAU__crt_multibyte_data@@@Z 10015d17 f   libucrt:initialization.obj
 0001:00014e70       $$000000                   10015e70     libucrt:strncmp.obj
 0001:00014ee8       ??$?RV<lambda_cbab9ec6f41b0180b23cc171c22676b0>@@AAV<lambda_44731a7d0e6d81c3e6aa82d741081786>@@V<lambda_4b292cb8dd18144e164572427af410ab>@@@?$__crt_seh_guarded_call@P6AXH@Z@@QAEP6AXH@Z$$QAV<lambda_cbab9ec6f41b0180b23cc171c22676b0>@@AAV<lambda_44731a7d0e6d81c3e6aa82d741081786>@@$$QAV<lambda_4b292cb8dd18144e164572427af410ab>@@@Z 10015ee8 f   libucrt:signal.obj
 0001:00014f42       ?get_global_action_nolock@@YAPAP6AXH@ZH@Z 10015f42 f   libucrt:signal.obj
 0001:00014f84       ?siglookup@@YAPAU__crt_signal_action_t@@HQAU1@@Z 10015f84 f   libucrt:signal.obj
 0001:00015311       ??$?RV<lambda_15ade71b0218206bbe3333a0c9b79046>@@AAV<lambda_da44e0f8b0f19ba52fefafb335991732>@@V<lambda_207f2d024fc103971653565357d6cd41>@@@?$__crt_seh_guarded_call@X@@QAEX$$QAV<lambda_15ade71b0218206bbe3333a0c9b79046>@@AAV<lambda_da44e0f8b0f19ba52fefafb335991732>@@$$QAV<lambda_207f2d024fc103971653565357d6cd41>@@@Z 10016311 f   libucrt:per_thread_data.obj
 0001:00015359       ??$?RV<lambda_38edbb1296d33220d7e4dd0ed76b244a>@@AAV<lambda_5ce1d447e08cb34b2473517608e21441>@@V<lambda_fb385d3da700c9147fc39e65dd577a8c>@@@?$__crt_seh_guarded_call@X@@QAEX$$QAV<lambda_38edbb1296d33220d7e4dd0ed76b244a>@@AAV<lambda_5ce1d447e08cb34b2473517608e21441>@@$$QAV<lambda_fb385d3da700c9147fc39e65dd577a8c>@@@Z 10016359 f   libucrt:per_thread_data.obj
 0001:000153ba       ??$?RV<lambda_6affb1475c98b40b75cdec977db92e3c>@@AAV<lambda_b8d4b9c228a6ecc3f80208dbb4b4a104>@@V<lambda_608742c3c92a14382c1684fc64f96c88>@@@?$__crt_seh_guarded_call@X@@QAEX$$QAV<lambda_6affb1475c98b40b75cdec977db92e3c>@@AAV<lambda_b8d4b9c228a6ecc3f80208dbb4b4a104>@@$$QAV<lambda_608742c3c92a14382c1684fc64f96c88>@@@Z 100163ba f   libucrt:per_thread_data.obj
 0001:00015405       ??$?RV<lambda_a7e850c220f1c8d1e6efeecdedd162c6>@@AAV<lambda_46720907175c18b6c9d2717bc0d2d362>@@V<lambda_9048902d66e8d99359bc9897bbb930a8>@@@?$__crt_seh_guarded_call@X@@QAEX$$QAV<lambda_a7e850c220f1c8d1e6efeecdedd162c6>@@AAV<lambda_46720907175c18b6c9d2717bc0d2d362>@@$$QAV<lambda_9048902d66e8d99359bc9897bbb930a8>@@@Z 10016405 f   libucrt:per_thread_data.obj
 0001:00015455       ?construct_ptd@@YAXQAU__acrt_ptd@@QAPAU__crt_locale_data@@@Z 10016455 f   libucrt:per_thread_data.obj
 0001:000154f0       ?destroy_fls@@YGXPAX@Z     100164f0 f   libucrt:per_thread_data.obj
 0001:00015511       ?destroy_ptd@@YAXQAU__acrt_ptd@@@Z 10016511 f   libucrt:per_thread_data.obj
 0001:000155e0       ?replace_current_thread_locale_nolock@@YAXQAU__acrt_ptd@@QAU__crt_locale_data@@@Z 100165e0 f   libucrt:per_thread_data.obj
 0001:000158f5       ??R<lambda_0f007d4f94c691a9a85cf1869a09f0c3>@@QBEIPBD@Z 100168f5 f   libucrt:mbrtowc.obj
 0001:00015a60       ??$?RV<lambda_135d2772fca65dc1248eeaa1b56e886a>@@AAV<lambda_2a444430fde8c29194d880d93eed5e8f>@@AAV<lambda_8dff2cf36a5417162780cd64fa2883ef>@@@?$__crt_seh_guarded_call@X@@QAEX$$QAV<lambda_135d2772fca65dc1248eeaa1b56e886a>@@AAV<lambda_2a444430fde8c29194d880d93eed5e8f>@@AAV<lambda_8dff2cf36a5417162780cd64fa2883ef>@@@Z 10016a60 f   libucrt:wsetlocale.obj
 0001:00015a9b       ??$?RV<lambda_4fdada1b837b2abbf20876fac97688ad>@@AAV<lambda_b57350f2640456a0859d250846f69caf>@@V<lambda_eed5e4f92b5b7d55fa22c48c484aaa54>@@@?$__crt_seh_guarded_call@X@@QAEX$$QAV<lambda_4fdada1b837b2abbf20876fac97688ad>@@AAV<lambda_b57350f2640456a0859d250846f69caf>@@$$QAV<lambda_eed5e4f92b5b7d55fa22c48c484aaa54>@@@Z 10016a9b f   libucrt:wsetlocale.obj
 0001:00015ade       ??$?RV<lambda_e5124f882df8998aaf41531e079ba474>@@AAV<lambda_3e16ef9562a7dcce91392c22ab16ea36>@@V<lambda_e25ca0880e6ef98be67edffd8c599615>@@@?$__crt_seh_guarded_call@X@@QAEX$$QAV<lambda_e5124f882df8998aaf41531e079ba474>@@AAV<lambda_3e16ef9562a7dcce91392c22ab16ea36>@@$$QAV<lambda_e25ca0880e6ef98be67edffd8c599615>@@@Z 10016ade f   libucrt:wsetlocale.obj
 0001:00015b42       ??R<lambda_2a444430fde8c29194d880d93eed5e8f>@@QBE@XZ 10016b42 f   libucrt:wsetlocale.obj
 0001:00015bae       ??R<lambda_b57350f2640456a0859d250846f69caf>@@QBEXXZ 10016bae f   libucrt:wsetlocale.obj
 0001:00015f03       __copytlocinfo_nolock      10016f03 f   libucrt:wsetlocale.obj
 0001:000163d5       __wsetlocale_get_all       100173d5 f   libucrt:wsetlocale.obj
 0001:00016572       __wsetlocale_nolock        10017572 f   libucrt:wsetlocale.obj
 0001:0001685e       __wsetlocale_set_cat       1001785e f   libucrt:wsetlocale.obj
 0001:00016fb0       ?fp_format_a@@YAHQBNPADIQADIH_NIQAU__crt_locale_pointers@@@Z 10017fb0 f   libucrt:cvt.obj
 0001:000172ca       ?fp_format_e@@YAHQBNQADI1IH_NIQAU__crt_locale_pointers@@@Z 100182ca f   libucrt:cvt.obj
 0001:0001736e       ?fp_format_e_internal@@YAHQADIH_NIQAU_strflt@@1QAU__crt_locale_pointers@@@Z 1001836e f   libucrt:cvt.obj
 0001:000174b8       ?fp_format_f@@YAHQBNQADI1IHQAU__crt_locale_pointers@@@Z 100184b8 f   libucrt:cvt.obj
 0001:00017545       ?fp_format_f_internal@@YAHQADIHQAU_strflt@@_NQAU__crt_locale_pointers@@@Z 10018545 f   libucrt:cvt.obj
 0001:00017618       ?fp_format_g@@YAHQBNQADI1IH_NIQAU__crt_locale_pointers@@@Z 10018618 f   libucrt:cvt.obj
 0001:000176db       ?fp_format_nan_or_infinity@@YAHW4__acrt_fp_class@@_NPADI1@Z 100186db f   libucrt:cvt.obj
 0001:000177d0       ?shift_bytes@@YAXQADI0H@Z  100187d0 f   libucrt:cvt.obj
 0001:00017941       ?fputwc_binary_nolock@@YAG_WV__crt_stdio_stream@@@Z 10018941 f   libucrt:fputwc.obj
 0001:00017d39       ?initialize_inherited_file_handles_nolock@@YAXXZ 10018d39 f   libucrt:ioinit.obj
 0001:00017df1       ?initialize_stdio_handles_nolock@@YAXXZ 10018df1 f   libucrt:ioinit.obj
 0001:0001882d       ??$common_xtox@K_W@@YAHKQA_WII_N@Z 1001982d f   libucrt:xtoa.obj
 0001:000188d9       ??$common_xtox_s@K_W@@YAHKQA_WII_N@Z 100198d9 f   libucrt:xtoa.obj
 0001:00018a34       ??$common_tcsncat_s@_W@@YAHQA_WIQB_WI@Z 10019a34 f   libucrt:wcsncat_s.obj
 0001:00018b8e       ??$common_show_message_box@_W@@YAHQB_W0I@Z 10019b8e f   libucrt:crtmbox.obj
 0001:00018c17       ??$?RV<lambda_2866be3712abc81a800a822484c830d8>@@AAV<lambda_39ca0ed439415581b5b15c265174cece>@@V<lambda_2b24c74d71094a6cd0cb82e44167d71b>@@@?$__crt_seh_guarded_call@X@@QAEX$$QAV<lambda_2866be3712abc81a800a822484c830d8>@@AAV<lambda_39ca0ed439415581b5b15c265174cece>@@$$QAV<lambda_2b24c74d71094a6cd0cb82e44167d71b>@@@Z 10019c17 f   libucrt:fflush.obj
 0001:00018c98       ??$?RV<lambda_2cc53f568c5a2bb6f192f930a45d44ea>@@AAV<lambda_ab61a845afdef5b7c387490eaf3616ee>@@V<lambda_c2ffc0b7726aa6be21d5f0026187e748>@@@?$__crt_seh_guarded_call@X@@QAEX$$QAV<lambda_2cc53f568c5a2bb6f192f930a45d44ea>@@AAV<lambda_ab61a845afdef5b7c387490eaf3616ee>@@$$QAV<lambda_c2ffc0b7726aa6be21d5f0026187e748>@@@Z 10019c98 f   libucrt:fflush.obj
 0001:00018d3a       ??$?RV<lambda_6d20deecaf4856105ebacbad442d1079>@@AAV<lambda_9a32fed5bf61b6b509b2d3f6003082a1>@@V<lambda_63ea2239ed67c638ddbae41947fdf875>@@@?$__crt_seh_guarded_call@H@@QAEH$$QAV<lambda_6d20deecaf4856105ebacbad442d1079>@@AAV<lambda_9a32fed5bf61b6b509b2d3f6003082a1>@@$$QAV<lambda_63ea2239ed67c638ddbae41947fdf875>@@@Z 10019d3a f   libucrt:fflush.obj
 0001:00018d90       ?common_flush_all@@YAH_N@Z 10019d90 f   libucrt:fflush.obj
 0001:00018ddf       ?common_flush_all_should_try_to_flush_stream@@YA_NV__crt_stdio_stream@@QAH@Z 10019ddf f   libucrt:fflush.obj
 0001:00018e11       ?is_stream_flushable_or_commitable@@YA_NJ@Z 10019e11 f   libucrt:fflush.obj
 0001:00018f3b       ??$?RV<lambda_70c0770dcc4f6ec6272bb01dc82d3c91>@@AAV<lambda_ca71763b3c0644891230e4f79ea54fa6>@@V<lambda_ca266f0f09348b8765c113e3a39a2bc1>@@@?$__crt_seh_guarded_call@H@@QAEH$$QAV<lambda_70c0770dcc4f6ec6272bb01dc82d3c91>@@AAV<lambda_ca71763b3c0644891230e4f79ea54fa6>@@$$QAV<lambda_ca266f0f09348b8765c113e3a39a2bc1>@@@Z 10019f3b f   libucrt:setvbuf.obj
 0001:00018f8c       ??R<lambda_ca71763b3c0644891230e4f79ea54fa6>@@QBEHXZ 10019f8c f   libucrt:setvbuf.obj
 0001:00019026       ?set_buffer@@YAHV__crt_stdio_stream@@QADIH@Z 1001a026 f   libucrt:setvbuf.obj
 0001:00019220       ?<lambda_invoker_stdcall>@<lambda_29d3c280b90b41c2ae070ffca879996a>@@CGHPA_W@Z 1001a220 f   libucrt:winapi_thunks.obj
 0001:0001922d       ??$?RV<lambda_93797fb4802c957ba6a7f08e1250235b>@@AAV<lambda_1f3ce6bd48e0aa2e72a71c02eee379d3>@@V<lambda_56cae30c9364c9b6c15aeaac05d0418e>@@@?$__crt_seh_guarded_call@H@@QAEH$$QAV<lambda_93797fb4802c957ba6a7f08e1250235b>@@AAV<lambda_1f3ce6bd48e0aa2e72a71c02eee379d3>@@$$QAV<lambda_56cae30c9364c9b6c15aeaac05d0418e>@@@Z 1001a22d f   libucrt:winapi_thunks.obj
 0001:000192b5       ??B<lambda_29d3c280b90b41c2ae070ffca879996a>@@QBEP6GHPA_W@ZXZ 1001a2b5 f   libucrt:winapi_thunks.obj
 0001:000192bb       ??R<lambda_29d3c280b90b41c2ae070ffca879996a>@@QBEHPA_W@Z 1001a2bb f   libucrt:winapi_thunks.obj
 0001:00019301       ?try_get_AreFileApisANSI@@YAP6GHXZXZ 1001a301 f   libucrt:winapi_thunks.obj
 0001:0001931b       ?try_get_CompareStringEx@@YAP6GHPB_WK0H0HPAU_nlsversioninfo@@PAXJ@ZXZ 1001a31b f   libucrt:winapi_thunks.obj
 0001:00019335       ?try_get_EnumSystemLocalesEx@@YAP6GHP6GHPA_WKJ@ZKJPAX@ZXZ 1001a335 f   libucrt:winapi_thunks.obj
 0001:0001934f       ?try_get_GetDateFormatEx@@YAP6GHPB_WKPBU_SYSTEMTIME@@0PA_WH0@ZXZ 1001a34f f   libucrt:winapi_thunks.obj
 0001:00019369       ?try_get_GetLocaleInfoEx@@YAP6GHPB_WKPA_WH@ZXZ 1001a369 f   libucrt:winapi_thunks.obj
 0001:00019383       ?try_get_GetTimeFormatEx@@YAP6GHPB_WKPBU_SYSTEMTIME@@0PA_WH@ZXZ 1001a383 f   libucrt:winapi_thunks.obj
 0001:0001939d       ?try_get_GetUserDefaultLocaleName@@YAP6GHPA_WH@ZXZ 1001a39d f   libucrt:winapi_thunks.obj
 0001:000193b7       ?try_get_IsValidLocaleName@@YAP6GHPB_W@ZXZ 1001a3b7 f   libucrt:winapi_thunks.obj
 0001:000193d1       ?try_get_LCIDToLocaleName@@YAP6GHKPA_WHK@ZXZ 1001a3d1 f   libucrt:winapi_thunks.obj
 0001:000193eb       ?try_get_LCMapStringEx@@YAP6GHPB_WK0HPA_WHPAU_nlsversioninfo@@PAXJ@ZXZ 1001a3eb f   libucrt:winapi_thunks.obj
 0001:00019405       ?try_get_LocaleNameToLCID@@YAP6GKPB_WK@ZXZ 1001a405 f   libucrt:winapi_thunks.obj
 0001:0001941f       ?try_get_MessageBoxA@@YAP6GHPAUHWND__@@PBD1I@ZXZ 1001a41f f   libucrt:winapi_thunks.obj
 0001:00019439       ?try_get_MessageBoxW@@YAP6GHPAUHWND__@@PB_W1I@ZXZ 1001a439 f   libucrt:winapi_thunks.obj
 0001:00019453       ?try_get_first_available_module@@YAPAUHINSTANCE__@@QBW4module_id@?A0x391cf84c@@0@Z 1001a453 f   libucrt:winapi_thunks.obj
 0001:0001951b       ?try_get_function@@YAPAXW4function_id@?A0x391cf84c@@QBDQBW4module_id@2@2@Z 1001a51b f   libucrt:winapi_thunks.obj
 0001:00019d1c       ?_wcstombs_l_helper@@YAIPADPB_WIPAU__crt_locale_pointers@@@Z 1001ad1c f   libucrt:wcstombs.obj
 0001:0001a09d       ?InternalGetLocaleInfoA@@YAHQAU__crt_locale_pointers@@QB_WKQADH@Z 1001b09d f   libucrt:getlocaleinfoa.obj
 0001:0001a435       ?__acrt_LCMapStringA_stat@@YAHPAU__crt_locale_pointers@@PB_WKPBDHPADHHH@Z 1001b435 f   libucrt:lcmapstringa.obj
 0001:0001a790       $$000000                   1001b790     libucrt:pow_pentium4.obj
 0001:0001b2b0       $$000000                   1001c2b0     libucrt:87tran.obj
 0001:0001b4c0       $$000000                   1001c4c0     libucrt:87disp.obj
 0001:0001b720       $$000000                   1001c720     libucrt:genexcep.obj
 0001:0001b780       $$000000                   1001c780     libucrt:common.obj
 0001:0001bdb9       ?<lambda_invoker_cdecl>@<lambda_86056e3c024bff449830248dc1621ed2>@@CAHPBX0@Z 1001cdb9 f   libucrt:argv_wildcards.obj
 0001:0001bdd1       ??$common_expand_argv_wildcards@D@@YAHQAPADQAPAPAD@Z 1001cdd1 f   libucrt:argv_wildcards.obj
 0001:0001bfc2       ??$copy_and_add_argument_to_buffer@D@@YAHQBD0IAAV?$argument_list@D@?A0x5f5c8891@@@Z 1001cfc2 f   libucrt:argv_wildcards.obj
 0001:0001c075       ??$expand_argument_wildcards@D@@YAHQAD0AAV?$argument_list@D@?A0x5f5c8891@@@Z 1001d075 f   libucrt:argv_wildcards.obj
 0001:0001c1f5       ?expand_if_necessary@?$argument_list@D@?A0x5f5c8891@@AAEHXZ 1001d1f5 f   libucrt:argv_wildcards.obj
 0001:0001c287       ??$?RV<lambda_ceb1ee4838e85a9d631eb091e2fbe199>@@AAV<lambda_ae742caa10f662c28703da3d2ea5e57e>@@V<lambda_cd08b5d6af4937fe54fc07d0c9bf6b37>@@@?$__crt_seh_guarded_call@X@@QAEX$$QAV<lambda_ceb1ee4838e85a9d631eb091e2fbe199>@@AAV<lambda_ae742caa10f662c28703da3d2ea5e57e>@@$$QAV<lambda_cd08b5d6af4937fe54fc07d0c9bf6b37>@@@Z 1001d287 f   libucrt:mbctype.obj
 0001:0001c2ca       ??R<lambda_ae742caa10f662c28703da3d2ea5e57e>@@QBEXXZ 1001d2ca f   libucrt:mbctype.obj
 0001:0001c34d       ?CPtoLocaleName@@YAPB_WH@Z 1001d34d f   libucrt:mbctype.obj
 0001:0001c38b       ?getSystemCP@@YAHH@Z       1001d38b f   libucrt:mbctype.obj
 0001:0001c3fe       ?setSBCS@@YAXPAU__crt_multibyte_data@@@Z 1001d3fe f   libucrt:mbctype.obj
 0001:0001c463       ?setSBUpLow@@YAXPAU__crt_multibyte_data@@@Z 1001d463 f   libucrt:mbctype.obj
 0001:0001c61b       ?setmbcp_internal@@YAHH_NQAU__acrt_ptd@@QAPAU__crt_multibyte_data@@@Z 1001d61b f   libucrt:mbctype.obj
 0001:0001c736       ?update_thread_multibyte_data_internal@@YAPAU__crt_multibyte_data@@QAU__acrt_ptd@@QAPAU1@@Z 1001d736 f   libucrt:mbctype.obj
 0001:0001ca22       ?x_ismbbtype_l@@YAHPAU__crt_locale_pointers@@IHH@Z 1001da22 f   libucrt:ismbbyte.obj
 0001:0001caac       ?find_end_of_double_null_terminated_sequence@@YAPB_WQB_W@Z 1001daac f   libucrt:get_environment_from_os.obj
 0001:0001d9d2       ?free_crt_array_internal@@YAXQAPBXI@Z 1001e9d2 f   libucrt:inittime.obj
 0001:0001da0a       ?initialize_lc_time@@YA_NQAU__crt_lc_time_data@@QAU__crt_locale_data@@@Z 1001ea0a f   libucrt:inittime.obj
 0001:0001dde7       ??$common_tcsncpy_s@_W@@YAHQA_WIQB_WI@Z 1001ede7 f   libucrt:wcsncpy_s.obj
 0001:0001df67       _GetLocaleNameFromDefault  1001ef67 f   libucrt:get_qualified_locale.obj
 0001:0001dff0       _GetLocaleNameFromLangCountry 1001eff0 f   libucrt:get_qualified_locale.obj
 0001:0001e08a       _GetLocaleNameFromLanguage 1001f08a f   libucrt:get_qualified_locale.obj
 0001:0001e0e5       _GetPrimaryLen             1001f0e5 f   libucrt:get_qualified_locale.obj
 0001:0001e119       _LangCountryEnumProcEx@12  1001f119 f   libucrt:get_qualified_locale.obj
 0001:0001e40a       _LanguageEnumProcEx@12     1001f40a f   libucrt:get_qualified_locale.obj
 0001:0001e4cb       _ProcessCodePage           1001f4cb f   libucrt:get_qualified_locale.obj
 0001:0001e5c3       _TestDefaultCountry        1001f5c3 f   libucrt:get_qualified_locale.obj
 0001:0001e60e       _TranslateName             1001f60e f   libucrt:get_qualified_locale.obj
 0001:0001e87a       _CountryEnumProc@4         1001f87a f   libucrt:getqloc_downlevel.obj
 0001:0001e923       _GetLcidFromCountry        1001f923 f   libucrt:getqloc_downlevel.obj
 0001:0001e96e       _GetLcidFromLangCountry    1001f96e f   libucrt:getqloc_downlevel.obj
 0001:0001ea09       _GetLcidFromLanguage       1001fa09 f   libucrt:getqloc_downlevel.obj
 0001:0001ea6a       _GetPrimaryLen             1001fa6a f   libucrt:getqloc_downlevel.obj
 0001:0001ea96       _LangCountryEnumProc@4     1001fa96 f   libucrt:getqloc_downlevel.obj
 0001:0001ecec       _LanguageEnumProc@4        1001fcec f   libucrt:getqloc_downlevel.obj
 0001:0001edc3       _LcidFromHexString         1001fdc3 f   libucrt:getqloc_downlevel.obj
 0001:0001ee14       _ProcessCodePage           1001fe14 f   libucrt:getqloc_downlevel.obj
 0001:0001eef7       _TestDefaultCountry        1001fef7 f   libucrt:getqloc_downlevel.obj
 0001:0001ef1c       _TestDefaultLanguage       1001ff1c f   libucrt:getqloc_downlevel.obj
 0001:0001ef8c       _TranslateName             1001ff8c f   libucrt:getqloc_downlevel.obj
 0001:00020615       ??$common_flush_and_write_nolock@D@@YAHHV__crt_stdio_stream@@@Z 10021615 f   libucrt:_flsbuf.obj
 0001:00020726       ??$common_flush_and_write_nolock@_W@@YAHHV__crt_stdio_stream@@@Z 10021726 f   libucrt:_flsbuf.obj
 0001:0002083b       ??$write_buffer_nolock@D@@YA_NDV__crt_stdio_stream@@@Z 1002183b f   libucrt:_flsbuf.obj
 0001:00020906       ??$write_buffer_nolock@_W@@YA_N_WV__crt_stdio_stream@@@Z 10021906 f   libucrt:_flsbuf.obj
 0001:00020da1       ??$?RV<lambda_9e9de3de5fa147e2223d7db92bc10aa6>@@AAV<lambda_38ce7e780aa69e748d6df282ebc68efe>@@V<lambda_8ca6da459f0f6780f1cff60fdc3d00e5>@@@?$__crt_seh_guarded_call@H@@QAEH$$QAV<lambda_9e9de3de5fa147e2223d7db92bc10aa6>@@AAV<lambda_38ce7e780aa69e748d6df282ebc68efe>@@$$QAV<lambda_8ca6da459f0f6780f1cff60fdc3d00e5>@@@Z 10021da1 f   libucrt:commit.obj
 0001:00020eb8       ?write_double_translated_ansi_nolock@@YA?AUwrite_result@?A0x17268360@@HQBDI@Z 10021eb8 f   libucrt:write.obj
 0001:00021087       ?write_double_translated_unicode_nolock@@YA?AUwrite_result@?A0x17268360@@QBDI@Z 10022087 f   libucrt:write.obj
 0001:000210f1       ?write_requires_double_translation_nolock@@YA_NH@Z 100220f1 f   libucrt:write.obj
 0001:00021167       ?write_text_ansi_nolock@@YA?AUwrite_result@?A0x17268360@@HQBDI@Z 10022167 f   libucrt:write.obj
 0001:00021244       ?write_text_utf16le_nolock@@YA?AUwrite_result@?A0x17268360@@HQBDI@Z 10022244 f   libucrt:write.obj
 0001:0002132f       ?write_text_utf8_nolock@@YA?AUwrite_result@?A0x17268360@@HQBDI@Z 1002232f f   libucrt:write.obj
 0001:00021776       ?GetTableIndexFromLocaleName@@YAHPB_W@Z 10022776 f   libucrt:lcidtoname_downlevel.obj
 0001:00021a00       ??$common_tcsncpy_s@D@@YAHQADIQBDI@Z 10022a00 f   libucrt:strncpy_s.obj
 0001:00021abb       ??$translate_control_exception_mask@W4__acrt_fenv_machine_sse_control@@W4__acrt_fenv_abstract_control@@@@YA?AW4__acrt_fenv_machine_sse_control@@W4__acrt_fenv_abstract_control@@@Z 10022abb f   libucrt:_fenvutils.obj
 0001:00021b44       ?to_abstract_control@@YA?AW4__acrt_fenv_abstract_control@@W4__acrt_fenv_machine_sse_control@@@Z 10022b44 f   libucrt:_fenvutils.obj
 0001:00021c00       ?to_abstract_control@@YA?AW4__acrt_fenv_abstract_control@@W4__acrt_fenv_machine_x87_control@@@Z 10022c00 f   libucrt:_fenvutils.obj
 0001:00021cbd       ?to_machine_sse_control@@YA?AW4__acrt_fenv_machine_sse_control@@W4__acrt_fenv_abstract_control@@@Z 10022cbd f   libucrt:_fenvutils.obj
 0001:00021d51       ?to_machine_x87_control@@YA?AW4__acrt_fenv_machine_x87_control@@W4__acrt_fenv_abstract_control@@@Z 10022d51 f   libucrt:_fenvutils.obj
 0001:000224f0       ?swap@@YAXPAD0I@Z          100234f0 f   libucrt:qsort.obj
 0001:00022980       $$000000                   10023980     libucrt:strpbrk.obj
 0001:00022d81       ?initialize_multibyte@@YAHXZ 10023d81 f   libucrt:multibyte_initializer.obj
 0001:00023040       $$000000                   10024040     libucrt:log10_impl.obj
 0001:00023150       $$000000                   10024150     libucrt:ceil_pentium4.obj
 0001:0002326d       ??$common_lseek@_J@@YA_JH_JH@Z 1002426d f   libucrt:lseek.obj
 0001:0002336f       ??$common_lseek_nolock@_J@@YA_JH_JH@Z 1002436f f   libucrt:lseek.obj
 0001:00023760       $$000000                   10024760     libucrt:log10_pentium4.obj
 0001:00023aa9       ??$?RV<lambda_218ce3db14220d0be481dae8ef3383b6>@@AAV<lambda_628dfdc04ba53c8bfc02c9951375f3f5>@@V<lambda_57dc472bd5c9d5f3b2cbca59b8a843ae>@@@?$__crt_seh_guarded_call@H@@QAEH$$QAV<lambda_218ce3db14220d0be481dae8ef3383b6>@@AAV<lambda_628dfdc04ba53c8bfc02c9951375f3f5>@@$$QAV<lambda_57dc472bd5c9d5f3b2cbca59b8a843ae>@@@Z 10024aa9 f   libucrt:close.obj
 0001:00023c91       ?__dcrt_lowio_initialize_console_output@@YAXXZ 10024c91 f   libucrt:initcon.obj
 0001:00023e00       $$000000                   10024e00     libucrt:_strnicm.obj
 0001:00023fc0       $$000000                   10024fc0     LIBCMT:ulldvrm.obj
 0001:00024060       $$000000                   10025060     LIBCMT:sehprolg4gs.obj
 0001:000240c0       $$000000                   100250c0     LIBCMT:llshl.obj
 0001:000240e0       $$000000                   100250e0     LIBCMT:ullshr.obj
 0001:00024100       $$000000                   10025100     LIBCMT:lldvrm.obj
 0001:000241e0       $$000000                   100251e0     LIBCMT:ftol2.obj
 0001:000242a0       $$000000                   100252a0     libvcruntime:strrchr.obj
 0001:000244a0       __ehhandler$?New@HID@@CAXABV?$FunctionCallbackInfo@VValue@v8@@@Nan@@@Z 100254a0 f   HID.obj
 0001:000244d0       __ehhandler$?close@HID@@CAXABV?$FunctionCallbackInfo@VValue@v8@@@Nan@@@Z 100254d0 f   HID.obj
 0001:000244f0       __ehhandler$?setNonBlocking@HID@@CAXABV?$FunctionCallbackInfo@VValue@v8@@@Nan@@@Z 100254f0 f   HID.obj
 0001:00024510       __ehhandler$?write@HID@@CAXABV?$FunctionCallbackInfo@VValue@v8@@@Nan@@@Z 10025510 f   HID.obj
 0001:00024540       __ehhandler$?getDeviceInfo@HID@@CAXABV?$FunctionCallbackInfo@VValue@v8@@@Nan@@@Z 10025540 f   HID.obj
 0001:00024570       __ehhandler$?devices@HID@@SAXABV?$FunctionCallbackInfo@VValue@v8@@@Nan@@@Z 10025570 f   HID.obj
 0001:00024598       __ehhandler$??1_Fac_node@std@@QAE@XZ 10025598 f   libcpmt:locale0.obj
 0001:000245b3       __ehhandler$??1_Locimp@locale@std@@MAE@XZ 100255b3 f   libcpmt:locale0.obj
 0001:000245b3       __ehhandler$??1_Init_atexit@@QAE@XZ 100255b3 f   libcpmt:iosptrs.obj
 0001:000245ce       __unwindfunclet$?_Init@locale@std@@CAPAV_Locimp@12@_N@Z$0 100255ce f   libcpmt:locale0.obj
 0001:000245d6       __ehhandler$?_Init@locale@std@@CAPAV_Locimp@12@_N@Z 100255d6 f   libcpmt:locale0.obj
 0001:000245f1       __unwindfunclet$?_Locimp_dtor@_Locimp@locale@std@@CAXPAV123@@Z$0 100255f1 f   libcpmt:locale0.obj
 0001:000245f9       __ehhandler$?_Locimp_dtor@_Locimp@locale@std@@CAXPAV123@@Z 100255f9 f   libcpmt:locale0.obj
 0001:00024614       __ehhandler$?CallUnexpected@@YAXPBU_s_ESTypeList@@@Z 10025614 f   libvcruntime:frame.obj
 0001:0002462f       __unwindfunclet$?_wcstombs_l_helper@@YAIPADPB_WIPAU__crt_locale_pointers@@@Z$0 1002562f f   libucrt:wcstombs.obj
 0001:00024637       __ehhandler$?_wcstombs_l_helper@@YAIPADPB_WIPAU__crt_locale_pointers@@@Z 10025637 f   libucrt:wcstombs.obj
 0001:0002465c       ??__Finitlocks@std@@YAXXZ  1002565c f   libcpmt:xlock.obj
 0001:00024666       ??__F_Fac_tidy_reg@std@@YAXXZ 10025666 f   libcpmt:locale0.obj
 0001:00024670       ??__Fclassic_locale@std@@YAXXZ 10025670 f   libcpmt:locale0.obj
 0001:0002467a       ??__Finit_atexit@@YAXXZ    1002567a f   libcpmt:iosptrs.obj
 0001:00024684       ??__Finitlocks@std@@YAXXZ  10025684 f   libcpmt:iosptrs.obj
 0002:00000274       ?initlocks$initializer$@std@@3P6AXXZA 10026274     libcpmt:xlock.obj
 0002:00000278       ?initlocks$initializer$@std@@3P6AXXZA 10026278     libcpmt:iosptrs.obj
 0002:0000027c       ?init_atexit$initializer$@@3P6AXXZA 1002627c     libcpmt:iosptrs.obj
 0002:00000280       ?_Fac_tidy_reg$initializer$@std@@3P6AXXZA 10026280     libcpmt:locale0.obj
 0002:00000284       ?classic_locale$initializer$@std@@3P6AXXZA 10026284     libcpmt:locale0.obj
 0002:00000294       ?pinit@@3P6AHXZA           10026294     libcpmt:winapisupp.obj
 0002:00000388       ?_Sys_errtab@std@@3QBU_Sys_errtab_t@1@B 10026388     libcpmt:syserror.obj
 0002:000005f8       ?_Win_errtab@std@@3QBU_Win_errtab_t@1@B 100265f8     libcpmt:syserror.obj
 0002:000012ac       _digits                    100272ac     libcpmt:xstoul.obj
 0002:000012d4       _ndigs                     100272d4     libcpmt:xstoul.obj
 0002:000012fc       _digits                    100272fc     libcpmt:xstoull.obj
 0002:00001324       _ndigs                     10027324     libcpmt:xstoull.obj
 0002:00001350       ?LcidToLocaleNameTable@@3QBULcidToLocaleName@@B 10027350     libcpmt:winapinls.obj
 0002:00001a70       ?LocaleNameToIndexTable@@3QBULocaleNameIndex@@B 10027a70     libcpmt:winapinls.obj
 0002:0000340c       _GS_ExceptionPointers      1002940c     LIBCMT:gs_report.obj
 0002:00003438       ?ExceptionTemplate@?1??_CxxThrowException@@9@8@4UEHExceptionRecord@@B 10029438     libvcruntime:throw.obj
 0002:00003478       ?module_names@?A0x170b12c9@@3QBQB_WB 10029478     libvcruntime:winapi_downlevel.obj
 0002:00003530       ?candidate_modules@?1??try_get_FlsAlloc@@YAP6GKP6GXPAX@Z@ZXZ@4QBW4module_id@?A0x170b12c9@@B 10029530     libvcruntime:winapi_downlevel.obj
 0002:00003538       ?candidate_modules@?1??try_get_FlsFree@@YAP6GHK@ZXZ@4QBW4module_id@?A0x170b12c9@@B 10029538     libvcruntime:winapi_downlevel.obj
 0002:00003540       ?candidate_modules@?1??try_get_FlsGetValue@@YAP6GPAXK@ZXZ@4QBW4module_id@?A0x170b12c9@@B 10029540     libvcruntime:winapi_downlevel.obj
 0002:00003548       ?candidate_modules@?1??try_get_FlsSetValue@@YAP6GHKPAX@ZXZ@4QBW4module_id@?A0x170b12c9@@B 10029548     libvcruntime:winapi_downlevel.obj
 0002:00003550       ?candidate_modules@?1??try_get_InitializeCriticalSectionEx@@YAP6GHPAU_RTL_CRITICAL_SECTION@@KK@ZXZ@4QBW4module_id@?A0x170b12c9@@B 10029550     libvcruntime:winapi_downlevel.obj
 0002:00003558       ?tokenTable@@3QBQBDB       10029558     libvcruntime:undname.obj
 0002:00003598       ?nameTable@@3QBQBDB        10029598     libvcruntime:undname.obj
 0002:000036e0       ?rttiTable@@3QBQBDB        100296e0     libvcruntime:undname.obj
 0002:00004890       ?errtable@@3QBUerrentry@?A0x31fdb9ec@@B 1002a890     libucrt:errno.obj
 0002:000053c0       POW_name                   1002b3c0     libucrt:pow_impl.obj
 0002:00005498       ___acrt_initializers       1002b498     libucrt:initialization.obj
 0002:00005520       __first_127char            1002b520     libucrt:wsetlocale.obj
 0002:00005ba8       ?_names@?1??_get_fname@@9@9 1002bba8     libucrt:fpexcept.obj
 0002:00005d70       _over                      1002bd70     libucrt:fpctrl.obj
 0002:00005d7c       _under                     1002bd7c     libucrt:fpctrl.obj
 0002:00005d88       ?module_names@?A0x391cf84c@@3QBQB_WB 1002bd88     libucrt:winapi_thunks.obj
 0002:000062a8       ?candidate_modules@?1??try_get_AreFileApisANSI@@YAP6GHXZXZ@4QBW4module_id@?A0x391cf84c@@B 1002c2a8     libucrt:winapi_thunks.obj
 0002:000062bc       ?candidate_modules@?1??try_get_CompareStringEx@@YAP6GHPB_WK0H0HPAU_nlsversioninfo@@PAXJ@ZXZ@4QBW4module_id@?A0x391cf84c@@B 1002c2bc     libucrt:winapi_thunks.obj
 0002:000062d4       ?candidate_modules@?1??try_get_EnumSystemLocalesEx@@YAP6GHP6GHPA_WKJ@ZKJPAX@ZXZ@4QBW4module_id@?A0x391cf84c@@B 1002c2d4     libucrt:winapi_thunks.obj
 0002:000062f0       ?candidate_modules@?1??try_get_FlsAlloc@@YAP6GKP6GXPAX@Z@ZXZ@4QBW4module_id@?A0x391cf84c@@B 1002c2f0     libucrt:winapi_thunks.obj
 0002:00006304       ?candidate_modules@?1??try_get_FlsFree@@YAP6GHK@ZXZ@4QBW4module_id@?A0x391cf84c@@B 1002c304     libucrt:winapi_thunks.obj
 0002:00006314       ?candidate_modules@?1??try_get_FlsGetValue@@YAP6GPAXK@ZXZ@4QBW4module_id@?A0x391cf84c@@B 1002c314     libucrt:winapi_thunks.obj
 0002:00006328       ?candidate_modules@?1??try_get_FlsSetValue@@YAP6GHKPAX@ZXZ@4QBW4module_id@?A0x391cf84c@@B 1002c328     libucrt:winapi_thunks.obj
 0002:0000633c       ?candidate_modules@?1??try_get_GetActiveWindow@@YAP6GPAUHWND__@@XZXZ@4QBW4module_id@?A0x391cf84c@@B 1002c33c     libucrt:winapi_thunks.obj
 0002:00006354       ?candidate_modules@?1??try_get_GetDateFormatEx@@YAP6GHPB_WKPBU_SYSTEMTIME@@0PA_WH0@ZXZ@4QBW4module_id@?A0x391cf84c@@B 1002c354     libucrt:winapi_thunks.obj
 0002:0000636c       ?candidate_modules@?1??try_get_GetLastActivePopup@@YAP6GPAUHWND__@@PAU2@@ZXZ@4QBW4module_id@?A0x391cf84c@@B 1002c36c     libucrt:winapi_thunks.obj
 0002:00006388       ?candidate_modules@?1??try_get_GetLocaleInfoEx@@YAP6GHPB_WKPA_WH@ZXZ@4QBW4module_id@?A0x391cf84c@@B 1002c388     libucrt:winapi_thunks.obj
 0002:000063a0       ?candidate_modules@?1??try_get_GetProcessWindowStation@@YAP6GPAUHWINSTA__@@XZXZ@4QBW4module_id@?A0x391cf84c@@B 1002c3a0     libucrt:winapi_thunks.obj
 0002:000063c0       ?candidate_modules@?1??try_get_GetTimeFormatEx@@YAP6GHPB_WKPBU_SYSTEMTIME@@0PA_WH@ZXZ@4QBW4module_id@?A0x391cf84c@@B 1002c3c0     libucrt:winapi_thunks.obj
 0002:000063d8       ?candidate_modules@?1??try_get_GetUserDefaultLocaleName@@YAP6GHPA_WH@ZXZ@4QBW4module_id@?A0x391cf84c@@B 1002c3d8     libucrt:winapi_thunks.obj
 0002:000063fc       ?candidate_modules@?1??try_get_GetUserObjectInformationW@@YAP6GHPAXH0KPAK@ZXZ@4QBW4module_id@?A0x391cf84c@@B 1002c3fc     libucrt:winapi_thunks.obj
 0002:00006420       ?candidate_modules@?1??try_get_InitializeCriticalSectionEx@@YAP6GHPAU_RTL_CRITICAL_SECTION@@KK@ZXZ@4QBW4module_id@?A0x391cf84c@@B 1002c420     libucrt:winapi_thunks.obj
 0002:00006444       ?candidate_modules@?1??try_get_IsValidLocaleName@@YAP6GHPB_W@ZXZ@4QBW4module_id@?A0x391cf84c@@B 1002c444     libucrt:winapi_thunks.obj
 0002:00006460       ?candidate_modules@?1??try_get_LCMapStringEx@@YAP6GHPB_WK0HPA_WHPAU_nlsversioninfo@@PAXJ@ZXZ@4QBW4module_id@?A0x391cf84c@@B 1002c460     libucrt:winapi_thunks.obj
 0002:00006478       ?candidate_modules@?1??try_get_LCIDToLocaleName@@YAP6GHKPA_WHK@ZXZ@4QBW4module_id@?A0x391cf84c@@B 1002c478     libucrt:winapi_thunks.obj
 0002:00006494       ?candidate_modules@?1??try_get_LocaleNameToLCID@@YAP6GKPB_WK@ZXZ@4QBW4module_id@?A0x391cf84c@@B 1002c494     libucrt:winapi_thunks.obj
 0002:000064b0       ?candidate_modules@?1??try_get_MessageBoxA@@YAP6GHPAUHWND__@@PBD1I@ZXZ@4QBW4module_id@?A0x391cf84c@@B 1002c4b0     libucrt:winapi_thunks.obj
 0002:000064c4       ?candidate_modules@?1??try_get_MessageBoxW@@YAP6GHPAUHWND__@@PB_W1I@ZXZ@4QBW4module_id@?A0x391cf84c@@B 1002c4c4     libucrt:winapi_thunks.obj
 0002:000064d8       ?candidate_modules@?1??try_get_AppPolicyGetProcessTerminationMethod@@YAP6GJPAXPAW4AppPolicyProcessTerminationMethod@@@ZXZ@4QBW4module_id@?A0x391cf84c@@B 1002c4d8     libucrt:winapi_thunks.obj
 0002:00006504       ?candidate_modules@?1??try_get_AppPolicyGetShowDeveloperDiagnostic@@YAP6GJPAXPAW4AppPolicyShowDeveloperDiagnostic@@@ZXZ@4QBW4module_id@?A0x391cf84c@@B 1002c504     libucrt:winapi_thunks.obj
 0002:0000652c       ?candidate_modules@?1??try_get_AppPolicyGetWindowingModel@@YAP6GJPAXPAW4AppPolicyWindowingModel@@@ZXZ@4QBW4module_id@?A0x391cf84c@@B 1002c52c     libucrt:winapi_thunks.obj
 0002:00006550       Shifter                    1002c550     libucrt:pow_pentium4.obj
 0002:00006560       SIGMASK                    1002c560     libucrt:pow_pentium4.obj
 0002:00006570       ONEMASK                    1002c570     libucrt:pow_pentium4.obj
 0002:00006580       ABSVALMASK                 1002c580     libucrt:pow_pentium4.obj
 0002:00006590       cev                        1002c590     libucrt:pow_pentium4.obj
 0002:000065b8       HALFSIG                    1002c5b8     libucrt:pow_pentium4.obj
 0002:000065c0       LHN                        1002c5c0     libucrt:pow_pentium4.obj
 0002:000065c8       sNaN                       1002c5c8     libucrt:pow_pentium4.obj
 0002:000065d0       INF                        1002c5d0     libucrt:pow_pentium4.obj
 0002:000065d8       NEG_INF                    1002c5d8     libucrt:pow_pentium4.obj
 0002:000065e0       NEG_ZERO                   1002c5e0     libucrt:pow_pentium4.obj
 0002:000065e8       NEG_BIG                    1002c5e8     libucrt:pow_pentium4.obj
 0002:000065f0       POS_BIG                    1002c5f0     libucrt:pow_pentium4.obj
 0002:000065f8       EMIN                       1002c5f8     libucrt:pow_pentium4.obj
 0002:00006600       QIND                       1002c600     libucrt:pow_pentium4.obj
 0002:0000662e       _log2max                   1002c62e     libucrt:87tran.obj
 0002:00006638       _smallarg                  1002c638     libucrt:87tran.obj
 0002:00006642       _half                      1002c642     libucrt:87tran.obj
 0002:0000668e       One                        1002c68e     libucrt:87disp.obj
 0002:00006696       Three                      1002c696     libucrt:87disp.obj
 0002:0000669e       XAMtoTagTab                1002c69e     libucrt:87disp.obj
 0002:000066b0       One                        1002c6b0     libucrt:common.obj
 0002:000066c4       DblMax                     1002c6c4     libucrt:common.obj
 0002:000066cc       DblMin                     1002c6cc     libucrt:common.obj
 0002:000066d4       IeeeAdjO                   1002c6d4     libucrt:common.obj
 0002:000066dc       IeeeAdjU                   1002c6dc     libucrt:common.obj
 0002:000066e4       _infinity                  1002c6e4     libucrt:common.obj
 0002:000066ec       _zero                      1002c6ec     libucrt:common.obj
 0002:00006700       ?_mb_locale_names@@3QBQB_WB 1002c700     libucrt:mbctype.obj
 0002:00007520       ?LcidToLocaleNameTable@?A0x881e4c05@@3QBULcidToLocaleName@1@B 1002d520     libucrt:lcidtoname_downlevel.obj
 0002:00008640       ?LocaleNameToIndexTable@?A0x881e4c05@@3QBULocaleNameIndex@1@B 1002e640     libucrt:lcidtoname_downlevel.obj
 0002:0000ce10       LOG_name                   10032e10     libucrt:log10_impl.obj
 0002:0000ce20       _One                       10032e20     libucrt:ceil_pentium4.obj
 0002:0000ce30       _Bns                       10032e30     libucrt:ceil_pentium4.obj
 0002:0000ce40       _Zero                      10032e40     libucrt:ceil_pentium4.obj
 0002:0000ce50       _S                         10032e50     libucrt:ceil_pentium4.obj
 0002:0000ce60       _NegZero                   10032e60     libucrt:ceil_pentium4.obj
 0002:0000ce70       emask                      10032e70     libucrt:log10_pentium4.obj
 0002:0000ce80       CC                         10032e80     libucrt:log10_pentium4.obj
 0002:0000ce90       Magic                      10032e90     libucrt:log10_pentium4.obj
 0002:0000cea0       hi_mask                    10032ea0     libucrt:log10_pentium4.obj
 0002:0000ceb0       LOG10_2                    10032eb0     libucrt:log10_pentium4.obj
 0002:0000cec0       place_L                    10032ec0     libucrt:log10_pentium4.obj
 0002:0000cee0       One                        10032ee0     libucrt:log10_pentium4.obj
 0002:0000cef0       Zero                       10032ef0     libucrt:log10_pentium4.obj
 0002:0000cf00       Two52                      10032f00     libucrt:log10_pentium4.obj
 0002:0000cf10       Infs                       10032f10     libucrt:log10_pentium4.obj
 0002:0000cf20       NaN                        10032f20     libucrt:log10_pentium4.obj
 0002:0000cf30       coeff                      10032f30     libucrt:log10_pentium4.obj
 0002:0000eda8       __ehfuncinfo$?New@HID@@CAXABV?$FunctionCallbackInfo@VValue@v8@@@Nan@@@Z 10034da8     HID.obj
 0002:0000edcc       __unwindtable$?New@HID@@CAXABV?$FunctionCallbackInfo@VValue@v8@@@Nan@@@Z 10034dcc     HID.obj
 0002:0000eddc       __tryblocktable$?New@HID@@CAXABV?$FunctionCallbackInfo@VValue@v8@@@Nan@@@Z 10034ddc     HID.obj
 0002:0000edf0       __catchsym$?New@HID@@CAXABV?$FunctionCallbackInfo@VValue@v8@@@Nan@@@Z$2 10034df0     HID.obj
 0002:0000ee00       __ehfuncinfo$?close@HID@@CAXABV?$FunctionCallbackInfo@VValue@v8@@@Nan@@@Z 10034e00     HID.obj
 0002:0000ee24       __unwindtable$?close@HID@@CAXABV?$FunctionCallbackInfo@VValue@v8@@@Nan@@@Z 10034e24     HID.obj
 0002:0000ee34       __tryblocktable$?close@HID@@CAXABV?$FunctionCallbackInfo@VValue@v8@@@Nan@@@Z 10034e34     HID.obj
 0002:0000ee48       __catchsym$?close@HID@@CAXABV?$FunctionCallbackInfo@VValue@v8@@@Nan@@@Z$2 10034e48     HID.obj
 0002:0000ee58       __ehfuncinfo$?setNonBlocking@HID@@CAXABV?$FunctionCallbackInfo@VValue@v8@@@Nan@@@Z 10034e58     HID.obj
 0002:0000ee7c       __unwindtable$?setNonBlocking@HID@@CAXABV?$FunctionCallbackInfo@VValue@v8@@@Nan@@@Z 10034e7c     HID.obj
 0002:0000ee8c       __tryblocktable$?setNonBlocking@HID@@CAXABV?$FunctionCallbackInfo@VValue@v8@@@Nan@@@Z 10034e8c     HID.obj
 0002:0000eea0       __catchsym$?setNonBlocking@HID@@CAXABV?$FunctionCallbackInfo@VValue@v8@@@Nan@@@Z$2 10034ea0     HID.obj
 0002:0000eeb0       __ehfuncinfo$?write@HID@@CAXABV?$FunctionCallbackInfo@VValue@v8@@@Nan@@@Z 10034eb0     HID.obj
 0002:0000eed4       __unwindtable$?write@HID@@CAXABV?$FunctionCallbackInfo@VValue@v8@@@Nan@@@Z 10034ed4     HID.obj
 0002:0000eee4       __tryblocktable$?write@HID@@CAXABV?$FunctionCallbackInfo@VValue@v8@@@Nan@@@Z 10034ee4     HID.obj
 0002:0000eef8       __catchsym$?write@HID@@CAXABV?$FunctionCallbackInfo@VValue@v8@@@Nan@@@Z$2 10034ef8     HID.obj
 0002:0000ef08       __ehfuncinfo$?getDeviceInfo@HID@@CAXABV?$FunctionCallbackInfo@VValue@v8@@@Nan@@@Z 10034f08     HID.obj
 0002:0000ef2c       __unwindtable$?getDeviceInfo@HID@@CAXABV?$FunctionCallbackInfo@VValue@v8@@@Nan@@@Z 10034f2c     HID.obj
 0002:0000ef3c       __tryblocktable$?getDeviceInfo@HID@@CAXABV?$FunctionCallbackInfo@VValue@v8@@@Nan@@@Z 10034f3c     HID.obj
 0002:0000ef50       __catchsym$?getDeviceInfo@HID@@CAXABV?$FunctionCallbackInfo@VValue@v8@@@Nan@@@Z$2 10034f50     HID.obj
 0002:0000ef60       __ehfuncinfo$?devices@HID@@SAXABV?$FunctionCallbackInfo@VValue@v8@@@Nan@@@Z 10034f60     HID.obj
 0002:0000ef84       __unwindtable$?devices@HID@@SAXABV?$FunctionCallbackInfo@VValue@v8@@@Nan@@@Z 10034f84     HID.obj
 0002:0000ef94       __tryblocktable$?devices@HID@@SAXABV?$FunctionCallbackInfo@VValue@v8@@@Nan@@@Z 10034f94     HID.obj
 0002:0000efa8       __catchsym$?devices@HID@@SAXABV?$FunctionCallbackInfo@VValue@v8@@@Nan@@@Z$2 10034fa8     HID.obj
 0002:0000efd4       __ehfuncinfo$??1_Init_atexit@@QAE@XZ 10034fd4     libcpmt:iosptrs.obj
 0002:0000efd4       __ehfuncinfo$??1_Locimp@locale@std@@MAE@XZ 10034fd4     libcpmt:locale0.obj
 0002:0000efd4       __ehfuncinfo$??1_Fac_node@std@@QAE@XZ 10034fd4     libcpmt:locale0.obj
 0002:0000eff8       __unwindtable$?_Locimp_dtor@_Locimp@locale@std@@CAXPAV123@@Z 10034ff8     libcpmt:locale0.obj
 0002:0000f000       __ehfuncinfo$?_Locimp_dtor@_Locimp@locale@std@@CAXPAV123@@Z 10035000     libcpmt:locale0.obj
 0002:0000f024       __unwindtable$?_Init@locale@std@@CAPAV_Locimp@12@_N@Z 10035024     libcpmt:locale0.obj
 0002:0000f02c       __ehfuncinfo$?_Init@locale@std@@CAPAV_Locimp@12@_N@Z 1003502c     libcpmt:locale0.obj
 0002:0000f120       __sehtable$?dllmain_crt_process_attach@@YAHQAUHINSTANCE__@@QAX@Z 10035120     LIBCMT:dll_dllmain.obj
 0002:0000f140       __sehtable$?dllmain_crt_process_detach@@YAH_N@Z 10035140     LIBCMT:dll_dllmain.obj
 0002:0000f160       __sehtable$?dllmain_dispatch@@YAHQAUHINSTANCE__@@KQAX@Z 10035160     LIBCMT:dll_dllmain.obj
 0002:0000f180       __sehtable$___scrt_is_nonwritable_in_current_image 10035180     LIBCMT:utility.obj
 0002:0000f1d8       __sehtable$___DestructExceptionObject 100351d8     libvcruntime:ehhelpers.obj
 0002:0000f1f8       __sehtable$?FrameUnwindToState@__FrameHandler3@@SAXPAUEHRegistrationNode@@PAXPBU_s_FuncInfo@@H@Z 100351f8     libvcruntime:frame.obj
 0002:0000f220       __sehtable$?CallCatchBlock@@YAPAXPAUEHExceptionRecord@@PAUEHRegistrationNode@@PAU_CONTEXT@@PBU_s_FuncInfo@@PAXHK@Z 10035220     libvcruntime:frame.obj
 0002:0000f248       __catchsym$?CallUnexpected@@YAXPBU_s_ESTypeList@@@Z$2 10035248     libvcruntime:frame.obj
 0002:0000f258       __unwindtable$?CallUnexpected@@YAXPBU_s_ESTypeList@@@Z 10035258     libvcruntime:frame.obj
 0002:0000f268       __tryblocktable$?CallUnexpected@@YAXPBU_s_ESTypeList@@@Z 10035268     libvcruntime:frame.obj
 0002:0000f27c       __ehfuncinfo$?CallUnexpected@@YAXPBU_s_ESTypeList@@@Z 1003527c     libvcruntime:frame.obj
 0002:0000f2a0       __sehtable$??$BuildCatchObjectHelperInternal@$$CBU_s_HandlerType@@@@YAHPAUEHExceptionRecord@@PAXPBU_s_HandlerType@@PBU_s_CatchableType@@@Z 100352a0     libvcruntime:frame.obj
 0002:0000f2c0       __sehtable$??$BuildCatchObjectInternal@$$CBU_s_HandlerType@@@@YAXPAUEHExceptionRecord@@PAXPBU_s_HandlerType@@PBU_s_CatchableType@@@Z 100352c0     libvcruntime:frame.obj
 0002:0000f318       __sehtable$??$?RV<lambda_75d23329f2fb3d02b2e1cf5509bb1caf>@@AAV<lambda_c4f131f91cb4ec00a5b0a26aa161b8b4>@@V<lambda_114dc79c86b00c313cb0b6b3b001aaf8>@@@?$__crt_seh_guarded_call@H@@QAEH$$QAV<lambda_75d23329f2fb3d02b2e1cf5509bb1caf>@@AAV<lambda_c4f131f91cb4ec00a5b0a26aa161b8b4>@@$$QAV<lambda_114dc79c86b00c313cb0b6b3b001aaf8>@@@Z 10035318     libucrt:output.obj
 0002:0000f338       __sehtable$_terminate      10035338     libucrt:terminate.obj
 0002:0000f358       __sehtable$??$?RV<lambda_0fef6fff2b5e6b53303c9058db11ae1f>@@AAV<lambda_082c17da81b0962e08c0587ee0fac50c>@@V<lambda_fa6e051aed0a38726081083cc7c328e9>@@@?$__crt_seh_guarded_call@PAD@@QAEPAD$$QAV<lambda_0fef6fff2b5e6b53303c9058db11ae1f>@@AAV<lambda_082c17da81b0962e08c0587ee0fac50c>@@$$QAV<lambda_fa6e051aed0a38726081083cc7c328e9>@@@Z 10035358     libucrt:setlocale.obj
 0002:0000f378       __sehtable$__query_new_handler 10035378     libucrt:new_handler.obj
 0002:0000f398       __sehtable$??R<lambda_6e4b09c48022b2350581041d5f6b0c4c>@@QBE@XZ 10035398     libucrt:exit.obj
 0002:0000f3b8       __sehtable$??$?RV<lambda_03b1d95aef87969028cfba75ccab2455>@@AAV<lambda_6e4b09c48022b2350581041d5f6b0c4c>@@V<lambda_22bdf7517842c4b3e53723af5aa32b9e>@@@?$__crt_seh_guarded_call@X@@QAEX$$QAV<lambda_03b1d95aef87969028cfba75ccab2455>@@AAV<lambda_6e4b09c48022b2350581041d5f6b0c4c>@@$$QAV<lambda_22bdf7517842c4b3e53723af5aa32b9e>@@@Z 100353b8     libucrt:exit.obj
 0002:0000f3d8       __sehtable$??$?RV<lambda_7ac4055421038abea736e08bd20712a4>@@AAV<lambda_a10e4b102d4a2c3aac6f4f48bbdf488f>@@V<lambda_1da61822885009acd1bf848af4f9644b>@@@?$__crt_seh_guarded_call@H@@QAEH$$QAV<lambda_7ac4055421038abea736e08bd20712a4>@@AAV<lambda_a10e4b102d4a2c3aac6f4f48bbdf488f>@@$$QAV<lambda_1da61822885009acd1bf848af4f9644b>@@@Z 100353d8     libucrt:onexit.obj
 0002:0000f3f8       __sehtable$??$?RV<lambda_69a2805e680e0e292e8ba93315fe43a8>@@AAV<lambda_f03950bc5685219e0bcd2087efbe011e>@@V<lambda_03fcd07e894ec930e3f35da366ca99d6>@@@?$__crt_seh_guarded_call@H@@QAEH$$QAV<lambda_69a2805e680e0e292e8ba93315fe43a8>@@AAV<lambda_f03950bc5685219e0bcd2087efbe011e>@@$$QAV<lambda_03fcd07e894ec930e3f35da366ca99d6>@@@Z 100353f8     libucrt:onexit.obj
 0002:0000f418       __sehtable$_raise          10035418     libucrt:signal.obj
 0002:0000f438       __sehtable$??$?RV<lambda_cbab9ec6f41b0180b23cc171c22676b0>@@AAV<lambda_44731a7d0e6d81c3e6aa82d741081786>@@V<lambda_4b292cb8dd18144e164572427af410ab>@@@?$__crt_seh_guarded_call@P6AXH@Z@@QAEP6AXH@Z$$QAV<lambda_cbab9ec6f41b0180b23cc171c22676b0>@@AAV<lambda_44731a7d0e6d81c3e6aa82d741081786>@@$$QAV<lambda_4b292cb8dd18144e164572427af410ab>@@@Z 10035438     libucrt:signal.obj
 0002:0000f458       __sehtable$??$?RV<lambda_15ade71b0218206bbe3333a0c9b79046>@@AAV<lambda_da44e0f8b0f19ba52fefafb335991732>@@V<lambda_207f2d024fc103971653565357d6cd41>@@@?$__crt_seh_guarded_call@X@@QAEX$$QAV<lambda_15ade71b0218206bbe3333a0c9b79046>@@AAV<lambda_da44e0f8b0f19ba52fefafb335991732>@@$$QAV<lambda_207f2d024fc103971653565357d6cd41>@@@Z 10035458     libucrt:per_thread_data.obj
 0002:0000f478       __sehtable$??$?RV<lambda_a7e850c220f1c8d1e6efeecdedd162c6>@@AAV<lambda_46720907175c18b6c9d2717bc0d2d362>@@V<lambda_9048902d66e8d99359bc9897bbb930a8>@@@?$__crt_seh_guarded_call@X@@QAEX$$QAV<lambda_a7e850c220f1c8d1e6efeecdedd162c6>@@AAV<lambda_46720907175c18b6c9d2717bc0d2d362>@@$$QAV<lambda_9048902d66e8d99359bc9897bbb930a8>@@@Z 10035478     libucrt:per_thread_data.obj
 0002:0000f498       __sehtable$??$?RV<lambda_38edbb1296d33220d7e4dd0ed76b244a>@@AAV<lambda_5ce1d447e08cb34b2473517608e21441>@@V<lambda_fb385d3da700c9147fc39e65dd577a8c>@@@?$__crt_seh_guarded_call@X@@QAEX$$QAV<lambda_38edbb1296d33220d7e4dd0ed76b244a>@@AAV<lambda_5ce1d447e08cb34b2473517608e21441>@@$$QAV<lambda_fb385d3da700c9147fc39e65dd577a8c>@@@Z 10035498     libucrt:per_thread_data.obj
 0002:0000f4b8       __sehtable$??$?RV<lambda_6affb1475c98b40b75cdec977db92e3c>@@AAV<lambda_b8d4b9c228a6ecc3f80208dbb4b4a104>@@V<lambda_608742c3c92a14382c1684fc64f96c88>@@@?$__crt_seh_guarded_call@X@@QAEX$$QAV<lambda_6affb1475c98b40b75cdec977db92e3c>@@AAV<lambda_b8d4b9c228a6ecc3f80208dbb4b4a104>@@$$QAV<lambda_608742c3c92a14382c1684fc64f96c88>@@@Z 100354b8     libucrt:per_thread_data.obj
 0002:0000f4d8       __sehtable$??$?RV<lambda_e5124f882df8998aaf41531e079ba474>@@AAV<lambda_3e16ef9562a7dcce91392c22ab16ea36>@@V<lambda_e25ca0880e6ef98be67edffd8c599615>@@@?$__crt_seh_guarded_call@X@@QAEX$$QAV<lambda_e5124f882df8998aaf41531e079ba474>@@AAV<lambda_3e16ef9562a7dcce91392c22ab16ea36>@@$$QAV<lambda_e25ca0880e6ef98be67edffd8c599615>@@@Z 100354d8     libucrt:wsetlocale.obj
 0002:0000f4f8       __sehtable$??$?RV<lambda_4fdada1b837b2abbf20876fac97688ad>@@AAV<lambda_b57350f2640456a0859d250846f69caf>@@V<lambda_eed5e4f92b5b7d55fa22c48c484aaa54>@@@?$__crt_seh_guarded_call@X@@QAEX$$QAV<lambda_4fdada1b837b2abbf20876fac97688ad>@@AAV<lambda_b57350f2640456a0859d250846f69caf>@@$$QAV<lambda_eed5e4f92b5b7d55fa22c48c484aaa54>@@@Z 100354f8     libucrt:wsetlocale.obj
 0002:0000f518       __sehtable$??$?RV<lambda_135d2772fca65dc1248eeaa1b56e886a>@@AAV<lambda_2a444430fde8c29194d880d93eed5e8f>@@AAV<lambda_8dff2cf36a5417162780cd64fa2883ef>@@@?$__crt_seh_guarded_call@X@@QAEX$$QAV<lambda_135d2772fca65dc1248eeaa1b56e886a>@@AAV<lambda_2a444430fde8c29194d880d93eed5e8f>@@AAV<lambda_8dff2cf36a5417162780cd64fa2883ef>@@@Z 10035518     libucrt:wsetlocale.obj
 0002:0000f538       __sehtable$___acrt_initialize_lowio 10035538     libucrt:ioinit.obj
 0002:0000f558       __sehtable$??$?RV<lambda_2866be3712abc81a800a822484c830d8>@@AAV<lambda_39ca0ed439415581b5b15c265174cece>@@V<lambda_2b24c74d71094a6cd0cb82e44167d71b>@@@?$__crt_seh_guarded_call@X@@QAEX$$QAV<lambda_2866be3712abc81a800a822484c830d8>@@AAV<lambda_39ca0ed439415581b5b15c265174cece>@@$$QAV<lambda_2b24c74d71094a6cd0cb82e44167d71b>@@@Z 10035558     libucrt:fflush.obj
 0002:0000f578       __sehtable$??$?RV<lambda_2cc53f568c5a2bb6f192f930a45d44ea>@@AAV<lambda_ab61a845afdef5b7c387490eaf3616ee>@@V<lambda_c2ffc0b7726aa6be21d5f0026187e748>@@@?$__crt_seh_guarded_call@X@@QAEX$$QAV<lambda_2cc53f568c5a2bb6f192f930a45d44ea>@@AAV<lambda_ab61a845afdef5b7c387490eaf3616ee>@@$$QAV<lambda_c2ffc0b7726aa6be21d5f0026187e748>@@@Z 10035578     libucrt:fflush.obj
 0002:0000f598       __sehtable$??$?RV<lambda_6d20deecaf4856105ebacbad442d1079>@@AAV<lambda_9a32fed5bf61b6b509b2d3f6003082a1>@@V<lambda_63ea2239ed67c638ddbae41947fdf875>@@@?$__crt_seh_guarded_call@H@@QAEH$$QAV<lambda_6d20deecaf4856105ebacbad442d1079>@@AAV<lambda_9a32fed5bf61b6b509b2d3f6003082a1>@@$$QAV<lambda_63ea2239ed67c638ddbae41947fdf875>@@@Z 10035598     libucrt:fflush.obj
 0002:0000f5b8       __sehtable$??$?RV<lambda_70c0770dcc4f6ec6272bb01dc82d3c91>@@AAV<lambda_ca71763b3c0644891230e4f79ea54fa6>@@V<lambda_ca266f0f09348b8765c113e3a39a2bc1>@@@?$__crt_seh_guarded_call@H@@QAEH$$QAV<lambda_70c0770dcc4f6ec6272bb01dc82d3c91>@@AAV<lambda_ca71763b3c0644891230e4f79ea54fa6>@@$$QAV<lambda_ca266f0f09348b8765c113e3a39a2bc1>@@@Z 100355b8     libucrt:setvbuf.obj
 0002:0000f5d8       __sehtable$??$?RV<lambda_93797fb4802c957ba6a7f08e1250235b>@@AAV<lambda_1f3ce6bd48e0aa2e72a71c02eee379d3>@@V<lambda_56cae30c9364c9b6c15aeaac05d0418e>@@@?$__crt_seh_guarded_call@H@@QAEH$$QAV<lambda_93797fb4802c957ba6a7f08e1250235b>@@AAV<lambda_1f3ce6bd48e0aa2e72a71c02eee379d3>@@$$QAV<lambda_56cae30c9364c9b6c15aeaac05d0418e>@@@Z 100355d8     libucrt:winapi_thunks.obj
 0002:0000f5f4       __unwindtable$?_wcstombs_l_helper@@YAIPADPB_WIPAU__crt_locale_pointers@@@Z 100355f4     libucrt:wcstombs.obj
 0002:0000f5fc       __ehfuncinfo$?_wcstombs_l_helper@@YAIPADPB_WIPAU__crt_locale_pointers@@@Z 100355fc     libucrt:wcstombs.obj
 0002:0000f620       __sehtable$?update_thread_multibyte_data_internal@@YAPAU__crt_multibyte_data@@QAU__acrt_ptd@@QAPAU1@@Z 10035620     libucrt:mbctype.obj
 0002:0000f640       __sehtable$??$?RV<lambda_ceb1ee4838e85a9d631eb091e2fbe199>@@AAV<lambda_ae742caa10f662c28703da3d2ea5e57e>@@V<lambda_cd08b5d6af4937fe54fc07d0c9bf6b37>@@@?$__crt_seh_guarded_call@X@@QAEX$$QAV<lambda_ceb1ee4838e85a9d631eb091e2fbe199>@@AAV<lambda_ae742caa10f662c28703da3d2ea5e57e>@@$$QAV<lambda_cd08b5d6af4937fe54fc07d0c9bf6b37>@@@Z 10035640     libucrt:mbctype.obj
 0002:0000f660       __sehtable$___acrt_update_thread_locale_data 10035660     libucrt:locale_refcounting.obj
 0002:0000f680       __sehtable$__fcloseall     10035680     libucrt:closeall.obj
 0002:0000f6a0       __sehtable$___acrt_lowio_ensure_fh_exists 100356a0     libucrt:osfinfo.obj
 0002:0000f6c0       __sehtable$??$?RV<lambda_9e9de3de5fa147e2223d7db92bc10aa6>@@AAV<lambda_38ce7e780aa69e748d6df282ebc68efe>@@V<lambda_8ca6da459f0f6780f1cff60fdc3d00e5>@@@?$__crt_seh_guarded_call@H@@QAEH$$QAV<lambda_9e9de3de5fa147e2223d7db92bc10aa6>@@AAV<lambda_38ce7e780aa69e748d6df282ebc68efe>@@$$QAV<lambda_8ca6da459f0f6780f1cff60fdc3d00e5>@@@Z 100356c0     libucrt:commit.obj
 0002:0000f6e0       __sehtable$__write         100356e0     libucrt:write.obj
 0002:0000f700       __sehtable$??$common_lseek@_J@@YA_JH_JH@Z 10035700     libucrt:lseek.obj
 0002:0000f720       __sehtable$_fclose         10035720     libucrt:fclose.obj
 0002:0000f740       __sehtable$??$?RV<lambda_218ce3db14220d0be481dae8ef3383b6>@@AAV<lambda_628dfdc04ba53c8bfc02c9951375f3f5>@@V<lambda_57dc472bd5c9d5f3b2cbca59b8a843ae>@@@?$__crt_seh_guarded_call@H@@QAEH$$QAV<lambda_218ce3db14220d0be481dae8ef3383b6>@@AAV<lambda_628dfdc04ba53c8bfc02c9951375f3f5>@@$$QAV<lambda_57dc472bd5c9d5f3b2cbca59b8a843ae>@@@Z 10035740     libucrt:close.obj
 0002:0000f760       __sehtable$__IsNonwritableInCurrentImage 10035760     LIBCMT:pesect.obj
 0002:0000f7b0       .edata                     100357b0     HID.exp
 0002:0000f7d8       rgpv                       100357d8     HID.exp
 0002:0000f824       rgszName                   10035824     HID.exp
 0002:0000f870       rgwOrd                     10035870     HID.exp
 0002:0000f896       szName                     10035896     HID.exp
 0002:0000f89f       $N00001                    1003589f     HID.exp
 0002:0000f8ae       $N00002                    100358ae     HID.exp
 0002:0000f8b8       $N00003                    100358b8     HID.exp
 0002:0000f8c6       $N00004                    100358c6     HID.exp
 0002:0000f8d0       $N00005                    100358d0     HID.exp
 0002:0000f8d9       $N00006                    100358d9     HID.exp
 0002:0000f8ee       $N00007                    100358ee     HID.exp
 0002:0000f905       $N00008                    10035905     HID.exp
 0002:0000f91c       $N00009                    1003591c     HID.exp
 0002:0000f938       $N00010                    10035938     HID.exp
 0002:0000f94f       $N00011                    1003594f     HID.exp
 0002:0000f96c       $N00012                    1003596c     HID.exp
 0002:0000f975       $N00013                    10035975     HID.exp
 0002:0000f97e       $N00014                    1003597e     HID.exp
 0002:0000f98c       $N00015                    1003598c     HID.exp
 0002:0000f995       $N00016                    10035995     HID.exp
 0002:0000f9a6       $N00017                    100359a6     HID.exp
 0002:0000f9be       $N00018                    100359be     HID.exp
 0002:0000f9d2       $N00019                    100359d2     HID.exp
 0002:0000fc98       .idata$6                   10035c98     kernel32:KERNEL32.dll
 0002:00010c1e       .idata$6                   10036c1e     iojs:node.dll
 0002:00010cde       .idata$6                   10036cde     setupapi:SETUPAPI.dll
 0003:00000000       ?init@std@@3JA             10038000     libcpmt:xlock.obj
 0003:0000005c       ?atcount_cdecl@@3IA        1003805c     libcpmt:iosptrs.obj
 0003:00000080       ?__vcrt_flsindex@@3KA      10038080     libvcruntime:per_thread_data.obj
 0003:00000118       ?errno_no_memory@@3HA      10038118     libucrt:errno.obj
 0003:0000011c       ?doserrno_no_memory@@3KA   1003811c     libucrt:errno.obj
 0003:00000120       ?__acrt_flsindex@@3KA      10038120     libucrt:per_thread_data.obj
 0003:00000124       __ctype_loc_style          10038124     libucrt:wsetlocale.obj
 0003:000002d0       ?tzstd_program@@3PADA      100382d0     libucrt:timeset.obj
 0003:00000310       ?tzdst_program@@3PADA      10038310     libucrt:timeset.obj
 0003:00000350       ?tzname_states@@3PAY01PADA 10038350     libucrt:timeset.obj
 0003:00000578       __mbctypes                 10038578     libucrt:mbctype.obj
 0003:00000680       __mbcasemaps               10038680     libucrt:mbctype.obj
 0003:00000780       ?__rgctypeflag@@3PADA      10038780     libucrt:mbctype.obj
 0003:00000788       ?__rgcode_page_info@@3PAUcode_page_info@@A 10038788     libucrt:mbctype.obj
 0003:00000880       ?__dcrt_lowio_console_output_handle@@3PAXA 10038880     libucrt:initcon.obj
 0003:00000890       __module                   10038890     HID.obj
 0003:00000b48       ?initlocks@std@@3V_Init_locks@1@A 10038b48     libcpmt:xlock.obj
 0003:00000b50       ?mtx@std@@3PAU_RTL_CRITICAL_SECTION@@A 10038b50     libcpmt:xlock.obj
 0003:00000c2c       ?classic_locale@std@@3Vlocale@1@A 10038c2c     libcpmt:locale0.obj
 0003:00000c34       ?_Fac_tidy_reg@std@@3U_Fac_tidy_reg_t@1@B 10038c34     libcpmt:locale0.obj
 0003:00000c38       ?_Fac_head@std@@3PAU_Fac_node@1@A 10038c38     libcpmt:locale0.obj
 0003:00000c3c       _global_locale             10038c3c     libcpmt:locale0.obj
 0003:00000c40       ?registered@?1??_Setgloballocale@locale@std@@CAXPAX@Z@4_NA 10038c40     libcpmt:locale0.obj
 0003:00000c48       ?stdstr@std@@3PAPAVios_base@1@A 10038c48     libcpmt:ios.obj
 0003:00000c70       ?stdopens@std@@3PADA       10038c70     libcpmt:ios.obj
 0003:00000d48       ?initlocks@std@@3V_Init_locks@1@A 10038d48     libcpmt:iosptrs.obj
 0003:00000d49       ?init_atexit@@3U_Init_atexit@@A 10038d49     libcpmt:iosptrs.obj
 0003:00000d4c       ?atfuns_cdecl@@3PAP6AXXZA  10038d4c     libcpmt:iosptrs.obj
 0003:00000dec       ?__proc_attached@@3HA      10038dec     LIBCMT:dll_dllmain.obj
 0003:00000df0       _GS_ExceptionRecord        10038df0     LIBCMT:gs_report.obj
 0003:00000e40       _GS_ContextRecord          10038e40     LIBCMT:gs_report.obj
 0003:00001114       ?is_initialized_as_dll@@3_NA 10039114     LIBCMT:utility.obj
 0003:00001115       ?module_local_atexit_table_initialized@@3_NA 10039115     LIBCMT:utility.obj
 0003:00001118       ?module_local_atexit_table@@3U_onexit_table_t@@A 10039118     LIBCMT:utility.obj
 0003:00001124       ?module_local_at_quick_exit_table@@3U_onexit_table_t@@A 10039124     LIBCMT:utility.obj
 0003:00001154       ?__vcrt_startup_thread_ptd@@3U__vcrt_ptd@@A 10039154     libvcruntime:per_thread_data.obj
 0003:0000117c       ___vcrt_lock_table         1003917c     libvcruntime:locks.obj
 0003:00001194       ___vcrt_locks_initialized  10039194     libvcruntime:locks.obj
 0003:00001198       ?module_handles@@3PAPAUHINSTANCE__@@A 10039198     libvcruntime:winapi_downlevel.obj
 0003:000011a4       ?encoded_function_pointers@@3PAPAXA 100391a4     libvcruntime:winapi_downlevel.obj
 0003:000011e0       ?heap@@3V_HeapManager@@A   100391e0     libvcruntime:undname.obj
 0003:000011f4       ?__acrt_invalid_parameter_handler@@3V?$dual_state_global@P6AXPB_W00II@Z@__crt_state_management@@A 100391f4     libucrt:invalid_parameter.obj
 0003:00001200       ?__acrt_lock_table@@3PAU_RTL_CRITICAL_SECTION@@A 10039200     libucrt:locks.obj
 0003:00001350       ?__acrt_locks_initialized@@3IA 10039350     libucrt:locks.obj
 0003:00001354       ?__acrt_new_handler@@3V?$dual_state_global@P6AHI@Z@__crt_state_management@@A 10039354     libucrt:new_handler.obj
 0003:00001358       ?c_termination_complete@@3JA 10039358     libucrt:exit.obj
 0003:0000135c       ?thread_local_exit_callback_func@@3P6GXPAXK0@ZA 1003935c     libucrt:exit.obj
 0003:00001368       ?program_name@?1???$common_configure_argv@D@@YAHW4_crt_argv_mode@@@Z@4PADA 10039368     libucrt:argv_parsing.obj
 0003:00001498       ?ctrlc_action@@3V?$dual_state_global@P6AXH@Z@__crt_state_management@@A 10039498     libucrt:signal.obj
 0003:0000149c       ?ctrlbreak_action@@3V?$dual_state_global@P6AXH@Z@__crt_state_management@@A 1003949c     libucrt:signal.obj
 0003:000014a0       ?abort_action@@3V?$dual_state_global@P6AXH@Z@__crt_state_management@@A 100394a0     libucrt:signal.obj
 0003:000014a4       ?term_action@@3V?$dual_state_global@P6AXH@Z@__crt_state_management@@A 100394a4     libucrt:signal.obj
 0003:000014b0       ?internal_state@?1??_mbtowc_l@@9@4U_Mbstatet@@A 100394b0     libucrt:mbtowc.obj
 0003:000014c4       ?enable_percent_n@@3IA     100394c4     libucrt:printf_count_output.obj
 0003:000016d4       ?__acrt_app_type@@3W4_crt_app_type@@A 100396d4     libucrt:report_runtime_error.obj
 0003:000016d8       ___acrt_error_mode         100396d8     libucrt:set_error_mode.obj
 0003:000016e0       ?module_handles@@3PAPAUHINSTANCE__@@A 100396e0     libucrt:winapi_thunks.obj
 0003:00001730       ?encoded_function_pointers@@3PAPAXA 10039730     libucrt:winapi_thunks.obj
 0003:000017b8       ?static_enum_proc@?1??enum_system_locales_ex_nolock@@YAHQ6GHPA_WKJ@Z@Z@4P6GH0KJ@ZA 100397b8     libucrt:winapi_thunks.obj
 0003:000017cc       ?_tzname@@3V?$dual_state_global@PAPAD@__crt_state_management@@A 100397cc     libucrt:timeset.obj
 0003:000017d0       ?tz_api_used@@3HA          100397d0     libucrt:tzset.obj
 0003:000017d8       ?tz_info@@3U_TIME_ZONE_INFORMATION@@A 100397d8     libucrt:tzset.obj
 0003:00001884       ?state_cache@?1???$get_cached_win_policy@Udeveloper_information_policy_properties@?1??__acrt_get_developer_information_policy@@YA?AW4developer_information_policy@@XZ@@@YA?AW4developer_information_policy@@W4AppPolicyShowDeveloperDiagnostic@@@Z@4JA 10039884     libucrt:win_policies.obj
 0003:00001888       ?state_cache@?1???$get_cached_win_policy@Uwindowing_model_policy_properties@?1??__acrt_get_windowing_model_policy@@YA?AW4windowing_model_policy@@XZ@@@YA?AW4windowing_model_policy@@W4AppPolicyWindowingModel@@@Z@4JA 10039888     libucrt:win_policies.obj
 0003:00001898       ?fSystemSet@@3HA           10039898     libucrt:mbctype.obj
 0003:0000189c       ?initialized@?1??__acrt_initialize_multibyte@@9@4_NA 1003989c     libucrt:mbctype.obj
 0003:000018bc       ?user_matherr@@3V?$dual_state_global@P6AHPAU_exception@@@Z@__crt_state_management@@A 100398bc     libucrt:matherr.obj
 0003:000018c0       ?__acrt_global_new_mode@@3V?$dual_state_global@J@__crt_state_management@@A 100398c0     libucrt:new_mode.obj
 0003:000018c4       ?internal_pst@?1??__mbrtoc32_utf8@__crt_mbstring@@YAIPA_UPBDIPAU_Mbstatet@@@Z@4U3@A 100398c4     libucrt:mbrtoc32.obj
 0003:000018cc       __pmatherr_set             100398cc     libucrt:libm_error.obj
 0003:000018d0       ?internal_pst@?1??__c16rtomb_utf8@__crt_mbstring@@YAIPAD_SPAU_Mbstatet@@@Z@4U3@A 100398d0     libucrt:c16rtomb.obj
 0003:00001904       _lib_handle                10039904     hidapi:hid.obj
 0003:00001908       _HidD_GetSerialNumberString 10039908     hidapi:hid.obj
 0003:0000190c       _HidD_SetNumInputBuffers   1003990c     hidapi:hid.obj
 0003:00001910       _HidD_GetFeature           10039910     hidapi:hid.obj
 0003:00001914       _HidD_SetFeature           10039914     hidapi:hid.obj
 0003:00001918       _HidD_FreePreparsedData    10039918     hidapi:hid.obj
 0003:0000191c       _HidD_GetPreparsedData     1003991c     hidapi:hid.obj
 0003:00001920       _HidP_GetCaps              10039920     hidapi:hid.obj
 0003:00001924       _initialized               10039924     hidapi:hid.obj
 0003:00001928       _HidD_GetManufacturerString 10039928     hidapi:hid.obj
 0003:0000192c       _HidD_GetAttributes        1003992c     hidapi:hid.obj
 0003:00001930       _HidD_GetProductString     10039930     hidapi:hid.obj
 0003:00001934       _HidD_GetIndexedString     10039934     hidapi:hid.obj
 0004:00000060       $R000000                   1003a060     * linker generated manifest res *

 Exports

  ordinal    name

        1    __register_HID_
               exported name: _register_HID_
        2    _hid_close
               exported name: hid_close
        3    _hid_enumerate
               exported name: hid_enumerate
        4    _hid_error
               exported name: hid_error
        5    _hid_exit
               exported name: hid_exit
        6    _hid_free_enumeration
               exported name: hid_free_enumeration
        7    _hid_get_feature_report
               exported name: hid_get_feature_report
        8    _hid_get_indexed_string
               exported name: hid_get_indexed_string
        9    _hid_get_manufacturer_string
               exported name: hid_get_manufacturer_string
       10    _hid_get_product_string
               exported name: hid_get_product_string
       11    _hid_get_serial_number_string
               exported name: hid_get_serial_number_string
       12    _hid_init
               exported name: hid_init
       13    _hid_open
               exported name: hid_open
       14    _hid_open_path
               exported name: hid_open_path
       15    _hid_read
               exported name: hid_read
       16    _hid_read_timeout
               exported name: hid_read_timeout
       17    _hid_send_feature_report
               exported name: hid_send_feature_report
       18    _hid_set_nonblocking
               exported name: hid_set_nonblocking
       19    _hid_write
               exported name: hid_write
